(dp0
S'33.5'
p1
(dp2
S'to'
p3
S'Taylor'
p4
sS'what'
p5
S'1 run'
p6
sS'from'
p7
S' Ashwin'
p8
sS'why'
p9
S'\nTaylor swipes across the line but misses and is hit on the body  leg byes towards short third man  but the umpire has judged he got some bat on that  </p>]'
p10
ssS'35.2'
p11
(dp12
g3
S'Anderson'
p13
sg5
S'6 run'
p14
sg7
S' Mohammed Shami'
p15
sg9
S"\nwhoops  this time he's missed the blockhole length and bowled a half-volley  Anderson plants his foot forward  gets under the ball and carts it over the straight boundary with a lot of power  </p>]"
p16
ssS'35.3'
p17
(dp18
g3
S'Anderson'
p19
sg5
S'no run'
p20
sg7
S' Mohammed Shami'
p21
sg9
S'\nthe shorter and slower ball outside off  Anderson did not read it and eventually let it go  </p>]'
p22
ssS'35.1'
p23
(dp24
g3
S'Anderson'
p25
sg5
S'no run'
p26
sg7
S' Mohammed Shami'
p27
sg9
S'\nShami hits the blockhole from round the wicket  Anderson can only dig it out back to the bowler  terrific start to a new spell  </p>]'
p28
ssS'35.6'
p29
(dp30
g3
S'Anderson'
p31
sg5
S'4 run'
p32
sg7
S' Mohammed Shami'
p33
sg9
S"\nthat's a full toss with room outside off stump  Anderson lines it up and slashes so hard  blazing the ball to the backward point boundary  </p>]"
p34
ssS'35.4'
p35
(dp36
g3
S'Anderson'
p37
sg5
S'1 run'
p38
sg7
S' Mohammed Shami'
p39
sg9
S'\na full ball angles into the left-hander  cramping him for room  Anderson chips it towards long-on  where it falls well short of the fielder  </p>]'
p40
ssS'35.5'
p41
(dp42
g3
S'Taylor'
p43
sg5
S'1 run'
p44
sg7
S' Mohammed Shami'
p45
sg9
S'\nTaylor moves forward and across and drives a full ball towards Anderson  who sways out of the way to let it pass towards long on  </p>]'
p46
ssS'7.2'
p47
(dp48
g3
S'Williamson'
p49
sg5
S'no run'
p50
sg7
S' Mohammed Shami'
p51
sg9
S'\ngood length outside off  Williamson lets it go  </p>]'
p52
ssS'6.6'
p53
(dp54
g3
S'Guptill'
p55
sg5
g32
sg7
S' Kumar'
p56
sg9
S"\nthis one is in the air but over the head of the man at mid-off  Guptill came forward and lofted a fuller ball on the up  he may have wanted to hit it a little straighter though but he's picked up consecutive boundaries  </p>]"
p57
ssS'12.1'
p58
(dp59
g3
S'Williamson'
p60
sg5
S'no run'
p61
sg7
S' I Sharma'
p62
sg9
S'\ngood length on off  angling into middle at 135 kph  Williamson defends on the front foot  </p>]'
p63
ssS'7.1'
p64
(dp65
g3
S'Williamson'
p66
sg5
S'2 runs'
p67
sg7
S' Mohammed Shami'
p68
sg9
S'\nthat ball was so short that Williamson had plenty of time to adjust to the slowness of the pitch and play a hook towards deep square leg  </p>]'
p69
ssS'6.3'
p70
(dp71
g3
S'Williamson'
p72
sg5
S'2 runs'
p73
sg7
S' Kumar'
p74
sg9
S'\nWilliamson moves back and across and flicks a length ball neatly in front of square  the timing is good  </p>]'
p75
ssS'12.6'
p76
(dp77
g3
S'Guptill'
p78
sg5
g14
sg7
S' I Sharma'
p79
sg9
S"\nthat's the first six of the game  Guptill moved forward and across and launched the ball off his pads  he didn't look up as the ball soared over the wide long-on boundary  he was looking down at the pitch  </p>]"
p80
ssS'6.1'
p81
(dp82
g3
S'Williamson'
p83
sg5
S'no run'
p84
sg7
S' Kumar'
p85
sg9
S'\na short ball  Williamson ducks under it  had plenty of time to do so because the bouncer was loopy  </p>]'
p86
ssS'12.4'
p87
(dp88
g3
S'Williamson'
p89
sg5
S'1 run'
p90
sg7
S' I Sharma'
p91
sg9
S'\nWilliamson stays back and opens the face to steer a length delivery from outside off to third man  </p>]'
p92
ssS'37.1'
p93
(dp94
g3
S'Taylor'
p95
sg5
S'1 run'
p96
sg7
S' Ashwin'
p97
sg9
S'\nTaylor wanted to nudge the ball on the leg side but the carrom ball spun away from him and went towards cover off the leading edge  </p>]'
p98
ssS'37.2'
p99
(dp100
g3
S'Anderson'
p101
sg5
S'1 run'
p102
sg7
S' Ashwin'
p103
sg9
S'\nJadeja leaps in the air full length at cover to try and catch a fearsome smash from Anderson  he got hands to the ball after it had passed him  spectacular effort. Saved a boundary.  </p>]'
p104
ssS'37.3'
p105
(dp106
g3
S'Taylor'
p107
sg5
S'1 run'
p108
sg7
S' Ashwin'
p109
sg9
S'\ngets down on one knee and slugs the ball behind square  reaches the deep backward square leg fielder on the first bounce  </p>]'
p110
ssS'37.4'
p111
(dp112
g3
S'Anderson'
p113
sg5
g14
sg7
S' Ashwin'
p114
sg9
S"\nthat's a massive shot  tremendous bat speed. Ashwin bowled a quicker ball  but Anderson used the angle into him from round the wicket  got under it and swung extremely hard. cleared midwicket by miles.  </p>]"
p115
ssS'37.5'
p116
(dp117
g3
S'Anderson'
p118
sg5
g14
sg7
S' Ashwin'
p119
sg9
S'\nthis one is much slower but it makes not a jot of difference. Anderson gets down on one knee and slog sweeps the ball high and far into the stands at deep midwicket  </p>]'
p120
ssS'37.6'
p121
(dp122
g3
S'Anderson'
p123
sg5
S'1 run'
p124
sg7
S' Ashwin'
p125
sg9
S'\nhit off the back foot extremely hard along the ground to long off  </p>]'
p126
ssS'10.1'
p127
(dp128
g3
S'Guptill'
p129
sg5
S'no run'
p130
sg7
S' I Sharma'
p131
sg9
S'\ngood length around off and midle at 136 kph  Guptill moves forward and across and defends on the on-side  </p>]'
p132
ssS'10.3'
p133
(dp134
g3
S'Guptill'
p135
sg5
S'1 run'
p136
sg7
S' I Sharma'
p137
sg9
S"\nshort ball down leg side  Guptill swivels and pulls hard along the ground  he's placed it straight to the long-leg fielder though  </p>]"
p138
ssS'10.2'
p139
(dp140
g3
S'Guptill'
p141
sg5
S'no run'
p142
sg7
S' I Sharma'
p143
sg9
S'\nGuptill stays in his crease and punches a good length ball to cover  </p>]'
p144
ssS'10.5'
p145
(dp146
g3
S'Williamson'
p147
sg5
S'no run'
p148
sg7
S' I Sharma'
p149
sg9
S'\n132 kph  good length just outside off  Williamson punches towards cover  </p>]'
p150
ssS'10.4'
p151
(dp152
g3
S'Williamson'
p153
sg5
S'no run'
p154
sg7
S' I Sharma'
p155
sg9
S'\nthe short ball and Williamson saw it early and ducked  </p>]'
p156
ssS'10.6'
p157
(dp158
g3
S'Williamson'
p159
sg5
S'1 run'
p160
sg7
S' I Sharma'
p161
sg9
S'\nshort ball once again  Williamson moves across towards the off and pulls the ball own behind square  </p>]'
p162
ssS'37.30'
p163
(dp164
g3
S'Taylor'
p165
sg5
S'1 wide'
p166
sg7
S' Ashwin'
p167
sg9
S'\nTaylor moves across to swat behind square  Ashwin fires the ball down leg side  </p>]'
p168
ssS'33.3'
p169
(dp170
g3
S'Taylor'
p171
sg5
S'no run'
p172
sg7
S' Ashwin'
p173
sg9
S'\nbowled on a good length on middle stump from round the wicket  Taylor defends on the front foot  </p>]'
p174
ssS'16.6'
p175
(dp176
g3
S'Guptill'
p177
sg5
S'no run'
p178
sg7
S' Kohli'
p179
sg9
S'\ndriven to mid off for a single  </p>]'
p180
ssS'16.5'
p181
(dp182
g3
S'Williamson'
p183
sg5
S'1 run'
p184
sg7
S' Kohli'
p185
sg9
S'\npunched off the back foot through cover for a single  </p>]'
p186
ssS'16.4'
p187
(dp188
g3
S'Williamson'
p189
sg5
S'no run'
p190
sg7
S' Kohli'
p191
sg9
S'\nWilliamson comes forward and defends towards the off side  </p>]'
p192
ssS'16.3'
p193
(dp194
g3
S'Guptill'
p195
sg5
S'1 run'
p196
sg7
S' Kohli'
p197
sg9
S'\na fuller ball  driven to long off for a single  </p>]'
p198
ssS'16.2'
p199
(dp200
g3
S'Guptill'
p201
sg5
g32
sg7
S' Kohli'
p202
sg9
S"\nthat's a dirty long-hop from Kohli  Guptill wound up and pulled the ball flat  bounced just inside the midwicket boundary  </p>]"
p203
ssS'16.1'
p204
(dp205
g3
S'Guptill'
p206
sg5
S'no run'
p207
sg7
S' Kohli'
p208
sg9
S'\ndriven back to the bowler on the front foot  </p>]'
p209
ssS'14.4'
p210
(dp211
g3
S'Williamson'
p212
sg5
S'no run'
p213
sg7
S' Kohli'
p214
sg9
S"\nmis-times it towards cover  Kohli's bowling a decent length outside off  </p>]"
p215
ssS'26.6'
p216
(dp217
g3
S'Taylor'
p218
sg5
S'no run'
p219
sg7
S' Jadeja'
p220
sg9
S"\nHas Taylor been stumped? Dhoni's super confident Taylor's out. It's mighty close. Was Taylor's toe off the ground when Dhoni took the bails off? There's very little in it. Taylor had lunged forward but was beaten in the flight. The ball spun away from him and beat the bat. Taylor lost balance and Dhoni had the bails off in a flash. It's a tough call for the TV umpire and he gives the benefit of the doubt to Taylor.  </p>]"
p221
ssS'26.4'
p222
(dp223
g3
S'Taylor'
p224
sg5
S'no run'
p225
sg7
S' Jadeja'
p226
sg9
S'\ntight wicket to wicket line Taylor stays in his crease and blocks  </p>]'
p227
ssS'26.5'
p228
(dp229
g3
S'Taylor'
p230
sg5
S'no run'
p231
sg7
S' Jadeja'
p232
sg9
S'\nTaylor wanted to turn the ball on the leg side but it spun after pitching around middle and took the outside edge to go on the off side  </p>]'
p233
ssS'26.2'
p234
(dp235
g3
S'Taylor'
p236
sg5
S'2 runs'
p237
sg7
S' Jadeja'
p238
sg9
S"\nTaylor pushes forward but isn't to the pitch of the ball  it beats him in the flight and takes the outside edge which goes wide of the slip fielder  </p>]"
p239
ssS'26.3'
p240
(dp241
g3
S'Taylor'
p242
sg5
S'no run'
p243
sg7
S' Jadeja'
p244
sg9
S'\nplayed towards mid-on  where Ashwin dives to his right to save runs  </p>]'
p245
ssS'26.1'
p246
(dp247
g3
S'Taylor'
p248
sg5
S'no run'
p249
sg7
S' Jadeja'
p250
sg9
S'\nTaylor moves forward and defends with a straight bat to the bowler  </p>]'
p251
ssS'14.5'
p252
(dp253
g3
S'Williamson'
p254
sg5
S'no run'
p255
sg7
S' Kohli'
p256
sg9
S"\na full ball and it's driven powerfully towards cover where the fielder dives to stop the shot  </p>]"
p257
ssS'12.3'
p258
(dp259
g3
S'Guptill'
p260
sg5
S'1 run'
p261
sg7
S' I Sharma'
p262
sg9
S'\nfuller length from Ishant  Guptill stays back this time and drives the ball through cover  </p>]'
p263
ssS'14.6'
p264
(dp265
g3
S'Williamson'
p266
sg5
g32
sg7
S' Kohli'
p267
sg9
S'\nstays on to the pads and the batsman moves back and glances it neatly towards the long-leg boundary where the effort by the fielder is poor  Kohli does not like it  </p>]'
p268
ssS'14.1'
p269
(dp270
g3
S'Williamson'
p271
sg5
S'1 run'
p272
sg7
S' Kohli'
p273
sg9
S'\ndriven off the back foot through cover for a single  </p>]'
p274
ssS'14.3'
p275
(dp276
g3
S'Guptill'
p277
sg5
S'1 run'
p278
sg7
S' Kohli'
p279
sg9
S'\nGuptill moves forward and drives to long-on  </p>]'
p280
ssS'12.2'
p281
(dp282
g3
S'Williamson'
p283
sg5
S'3 runs'
p284
sg7
S' I Sharma'
p285
sg9
S'\nshot  Williamson jumps back and drives a short of a length ball with a nice high elbow through cover. This pitch is slow  have I said that before?  </p>]'
p286
ssS'24.4'
p287
(dp288
g3
S'Taylor'
p289
sg5
S'1 run'
p290
sg7
S' Raina'
p291
sg9
S'\nworked off the front foot through midwicket this time  </p>]'
p292
ssS'24.5'
p293
(dp294
g3
S'Williamson'
p295
sg5
S'1 run'
p296
sg7
S' Raina'
p297
sg9
S'\nWilliamson stays in his crease and drives a ball that angles into him through midwicket  </p>]'
p298
ssS'24.6'
p299
(dp300
g3
S'Taylor'
p301
sg5
S'no run'
p302
sg7
S' Raina'
p303
sg9
S'\ndefended back to the bowler from the crease  </p>]'
p304
ssS'14.2'
p305
(dp306
g3
S'Guptill'
p307
sg5
S'no run'
p308
sg7
S' Kohli'
p309
sg9
S'\nplayed back towards the bowler  Kohli is coming off the pitch really slowly  </p>]'
p310
ssS'6.5'
p311
(dp312
g3
S'Guptill'
p313
sg5
g32
sg7
S' Kumar'
p314
sg9
S"\nthat's Guptill's best shot of the day  he transferred his weight on to the back foot to punch a length delivery through cover  timed it well too  </p>]"
p315
ssS'24.2'
p316
(dp317
g3
S'Williamson'
p318
sg5
S'1 run'
p319
sg7
S' Raina'
p320
sg9
S'\nworked off the pads through midwicket  </p>]'
p321
ssS'24.3'
p322
(dp323
g3
S'Taylor'
p324
sg5
S'no run'
p325
sg7
S' Raina'
p326
sg9
S'\nTaylor moves forward  the ball is angling down leg  he clips it to square leg  </p>]'
p327
ssS'22.2'
p328
(dp329
g3
S'Williamson'
p330
sg5
S'1 run'
p331
sg7
S' Raina'
p332
sg9
S'\nsteps out to get to the pitch of the ball and clips it through midwicket to bring up a fluent half-century  </p>]'
p333
ssS'22.3'
p334
(dp335
g3
S'Taylor'
p336
sg5
S'no run'
p337
sg7
S' Raina'
p338
sg9
S'\nshorter length and it turned into Taylor  who went back to play on the off side and then checked his shot  </p>]'
p339
ssS'6.4'
p340
(dp341
g3
S'Williamson'
p342
sg5
S'1 run'
p343
sg7
S' Kumar'
p344
sg9
S'\nshort of a length outside off  Williamson stays in his crease and punches wide of mid-off for a single  </p>]'
p345
ssS'22.6'
p346
(dp347
g3
S'Taylor'
p348
sg5
S'no run'
p349
sg7
S' Raina'
p350
sg9
S"\nTaylor comes forward but can't place his push to beat midwicket  </p>]"
p351
ssS'22.4'
p352
(dp353
g3
S'Taylor'
p354
sg5
S'1 run'
p355
sg7
S' Raina'
p356
sg9
S'\nplayed through midwicket for a single  </p>]'
p357
ssS'22.5'
p358
(dp359
g3
S'Williamson'
p360
sg5
S'1 run'
p361
sg7
S' Raina'
p362
sg9
S'\nWilliamson moves forward and flicks the ball through midwicket for one more  </p>]'
p363
ssS'7.6'
p364
(dp365
g3
S'Williamson'
p366
sg5
g32
sg7
S' Mohammed Shami'
p367
sg9
S"\ntoo short  giving Williamson plenty of time to swivel and pull between midwicket and mid-on  hasn't timed it perfectly but it still beats Ishant to the boundary  </p>]"
p368
ssS'6.2'
p369
(dp370
g3
S'Williamson'
p371
sg5
S'no run'
p372
sg7
S' Kumar'
p373
sg9
S'\ngood length outside off  he lets another one go  </p>]'
p374
ssS'7.4'
p375
(dp376
g3
S'Williamson'
p377
sg5
S'no run'
p378
sg7
S' Mohammed Shami'
p379
sg9
S'\nhe lets the ball go outside off stump  </p>]'
p380
ssS'32.20'
p381
(dp382
g3
S'Williamson'
p383
sg5
g166
sg7
S' I Sharma'
p384
sg9
S"\nanother one  this time it's too high  above Williamson's head and he lets it go  Ishant had to pitch it in the first one-thirds of the pitch to get it that high  </p>]"
p385
ssS'34.6'
p386
(dp387
g3
S'Taylor'
p388
sg5
g32
sg7
S' Jadeja'
p389
sg9
S'\nTaylor steps out and lofts the ball inside out over cover for another boundary  he got to the pitch of that one nicely. The first over of the batting Powerplay has cost India 13  </p>]'
p390
ssS'34.5'
p391
(dp392
g3
S'Taylor'
p393
sg5
g32
sg7
S' Jadeja'
p394
sg9
S'\nTaylor waits in his crease and dabs the ball late as it spins away from him  placing it wide of the man at first slip. This outfield is quick  despite the rain  </p>]'
p395
ssS'7.5'
p396
(dp397
g3
S'Williamson'
p398
sg5
S'2 runs'
p399
sg7
S' Mohammed Shami'
p400
sg9
S'\nstrays on to the pads and Williamson flicks it off his hips towards long leg  Dhawan dives to his right to save the boundary  </p>]'
p401
ssS'34.3'
p402
(dp403
g3
S'Anderson'
p404
sg5
g32
sg7
S' Jadeja'
p405
sg9
S'\na bit short and Anderson rocks back and pulls the ball hard to the midwicket boundary.  </p>]'
p406
ssS'34.2'
p407
(dp408
g3
S'Anderson'
p409
sg5
S'no run'
p410
sg7
S' Jadeja'
p411
sg9
S'\npushed from the crease to midwicket  </p>]'
p412
ssS'34.1'
p413
(dp414
g3
S'Williamson'
p415
sg5
S'OUT'
p416
sg7
S' Jadeja'
p417
sg9
S"\nWilliamson's been stumped! He charged down the track but was beaten by the flight and drift from Jadeja from round the wicket. Williamson tried to hit inside out over the off side but the ball dipped  pitched on middle and off and spun away to beat the bat. Dhoni had an easy stumping to make. The third umpire was not required  </p>]"
p418
ssS'24.1'
p419
(dp420
g3
S'Williamson'
p421
sg5
S'no run'
p422
sg7
S' Raina'
p423
sg9
S'\ncut off the back foot to point once again  </p>]'
p424
ssS'3.6'
p425
(dp426
g3
S'Guptill'
p427
sg5
S'no run'
p428
sg7
S' Mohammed Shami'
p429
sg9
S'\n143 kph  good length outside off  Guptill shoulders arms  </p>]'
p430
ssS'3.4'
p431
(dp432
g3
S'Ryder'
p433
sg5
S'no run'
p434
sg7
S' Mohammed Shami'
p435
sg9
S'\nShami replies with a bouncer and Ryder lets it pass  </p>]'
p436
ssS'3.5'
p437
(dp438
g3
S'Ryder'
p439
sg5
S'1 run'
p440
sg7
S' Mohammed Shami'
p441
sg9
S'\na length delivery on the pads  Ryder stays back and clips the ball behind square  </p>]'
p442
ssS'3.2'
p443
(dp444
g3
S'Ryder'
p445
sg5
g32
sg7
S' Mohammed Shami'
p446
sg9
S"\nhe's seeing it so good today  there's room outside off to work with and Ryder stays in his crease and threads the gap between two fielders at point with a precise cut  </p>]"
p447
ssS'3.3'
p448
(dp449
g3
S'Ryder'
p450
sg5
g32
sg7
S' Mohammed Shami'
p451
sg9
S"\nRyder's in a mood! He gets on to the front foot to a fuller and wide ball and cuts hard  hitting the ball into the ground  the bounce takes it high over the fielder at point  </p>]"
p452
ssS'3.1'
p453
(dp454
g3
S'Ryder'
p455
sg5
S'2 runs'
p456
sg7
S' Mohammed Shami'
p457
sg9
S'\nclassy from Ryder  stays back and is so balanced as he stands on the back foot and drives the short of a length ball on the up through cover  </p>]'
p458
ssS'2.3'
p459
(dp460
g3
S'Guptill'
p461
sg5
S'no run'
p462
sg7
S' Kumar'
p463
sg9
S'\nplayed from the crease towards cover  </p>]'
p464
ssS'2.2'
p465
(dp466
g3
S'Guptill'
p467
sg5
S'no run'
p468
sg7
S' Kumar'
p469
sg9
S'\n130 kph  gets behind the line of a good length delivery and defends on the leg side  </p>]'
p470
ssS'2.1'
p471
(dp472
g3
S'Guptill'
p473
sg5
S'no run'
p474
sg7
S' Kumar'
p475
sg9
S'\ngood length outside off  Guptill strides forward and shoulders arms  </p>]'
p476
ssS'36.6'
p477
(dp478
g3
S'Taylor'
p479
sg5
S'1 run'
p480
sg7
S' Kumar'
p481
sg9
S'\nkeeps the strike by driving a full ball past the bowler towards long off  </p>]'
p482
ssS'36.1'
p483
(dp484
g3
S'Taylor'
p485
sg5
S'1 run'
p486
sg7
S' Kumar'
p487
sg9
S'\na full ball  nearly in the blockhole  Taylor moves forward and across and pushes it towards long on  he wants two  Anderson says one  </p>]'
p488
ssS'2.6'
p489
(dp490
g3
S'Guptill'
p491
sg5
S'no run'
p492
sg7
S' Kumar'
p493
sg9
S"\ndefended on the back foot on the off side  Bhunveshwar bowls the game's first maiden over  </p>]"
p494
ssS'2.5'
p495
(dp496
g3
S'Guptill'
p497
sg5
S'no run'
p498
sg7
S' Kumar'
p499
sg9
S'\n134 kph  Guptill is beaten by one that pitches just outside off and holds its line  he moved back and across to defend but played down the wrong line  </p>]'
p500
ssS'2.4'
p501
(dp502
g3
S'Guptill'
p503
sg5
S'no run'
p504
sg7
S' Kumar'
p505
sg9
S'\nthat was fuller and much wider outside off at 130 kph  still not much movement  Guptill lets it go again  </p>]'
p506
ssS'20.1'
p507
(dp508
g3
S'Williamson'
p509
sg5
S'no run'
p510
sg7
S' Raina'
p511
sg9
S'\ntries to work the ball on the leg side but misses  </p>]'
p512
ssS'20.2'
p513
(dp514
g3
S'Williamson'
p515
sg5
S'no run'
p516
sg7
S' Raina'
p517
sg9
S"\nshort ball and Williamson goes back to pull but can't beat square leg  </p>]"
p518
ssS'20.3'
p519
(dp520
g3
S'Williamson'
p521
sg5
g14
sg7
S' Raina'
p522
sg9
S'\nWilliamson jumps out of his crease to get to the pitch of the ball and lofts the ball cleanly over the deep midwicket boundary  clean strike  </p>]'
p523
ssS'20.4'
p524
(dp525
g3
S'Williamson'
p526
sg5
S'1 run'
p527
sg7
S' Raina'
p528
sg9
S'\nshort ball pulled to deep midwicket  </p>]'
p529
ssS'20.5'
p530
(dp531
g3
S'Guptill'
p532
sg5
g416
sg7
S' Raina'
p533
sg9
S"\nGuptill  what have you done? A part-timer's got the breakthrough. He played a half-sweep/half-pull and ended up top-edging a harmless delivery straight to Shami at short fine leg  </p>]"
p534
ssS'20.6'
p535
(dp536
g3
S'Taylor'
p537
sg5
S'1 run'
p538
sg7
S' Raina'
p539
sg9
S'\nTaylor meets the full ball on the front foot and drives to long-on  </p>]'
p540
ssS'35.40'
p541
(dp542
g3
S'Anderson'
p543
sg5
g166
sg7
S' Mohammed Shami'
p544
sg9
S"\nanother short ball outside off but this time it is too high over the batsman's head  </p>]"
p545
ssS'22.1'
p546
(dp547
g3
S'Williamson'
p548
sg5
S'no run'
p549
sg7
S' Raina'
p550
sg9
S'\na wicket to wicket line from Raina  played back to the bowler  </p>]'
p551
ssS'39.1'
p552
(dp553
g3
S'Taylor'
p554
sg5
S'1 run'
p555
sg7
S' Mohammed Shami'
p556
sg9
S'\nin the blockhole outside off  Taylor squeezes it out towards cover with a drive  they scamper a single to the fielder on the edge of the inner circle  </p>]'
p557
ssS'21.5'
p558
(dp559
g3
S'Taylor'
p560
sg5
S'1 run'
p561
sg7
S' Jadeja'
p562
sg9
S'\nsteps out of his crease to meet the ball on the pitch and drives to long off for a single  </p>]'
p563
ssS'40.1'
p564
(dp565
g3
S'McCullum'
p566
sg5
g416
sg7
S' Kumar'
p567
sg9
S'\nbowled him! Bhuvneshwar hits the blockhole with an upright seam  McCullum is late in bringing his bat down and the ball creeps under it to hit the stumps. India staging a late fightback  </p>]'
p568
ssS'40.2'
p569
(dp570
g3
S'Mills'
p571
sg5
S'1 run'
p572
sg7
S' Kumar'
p573
sg9
S'\nin the blockhole once again  Mills taps it towards long on for a single  </p>]'
p574
ssS'40.3'
p575
(dp576
g3
S'Ronchi'
p577
sg5
S'1 run'
p578
sg7
S' Kumar'
p579
sg9
S"\nanother blockhole delivery  Ronchi can't get under it  he pushes it into the covers for a single  </p>]"
p580
ssS'38.10'
p581
(dp582
g3
S'Anderson'
p583
sg5
g166
sg7
S' I Sharma'
p584
sg9
S'\nhis first ball from round the wicket is a tremendously-wide wide outside off stump  </p>]'
p585
ssS'40.6'
p586
(dp587
g3
S'Ronchi'
p588
sg5
S'1 run'
p589
sg7
S' Kumar'
p590
sg9
S"\na low full toss  Ronchi drives it hard and straight  the ball ricochets off Mills' bat at the non-striker's end and goes towards long on  </p>]"
p591
ssS'40.4'
p592
(dp593
g3
S'Mills'
p594
sg5
S'1 run'
p595
sg7
S' Kumar'
p596
sg9
S'\nfull and straight  hit from the crease towards long on for one more  </p>]'
p597
ssS'40.5'
p598
(dp599
g3
S'Ronchi'
p600
sg5
g32
sg7
S' Kumar'
p601
sg9
S"\nhe's missed his length and bowled a full toss  Ronchi charged him and smashed the ball back over his head extremely hard  </p>]"
p602
ssS'27.3'
p603
(dp604
g3
S'Williamson'
p605
sg5
g32
sg7
S' Ashwin'
p606
sg9
S'\nshorter length outside off  giving Williamson the time to move back and drive the ball into the gap on the cover boundary  </p>]'
p607
ssS'27.2'
p608
(dp609
g3
S'Williamson'
p610
sg5
S'no run'
p611
sg7
S' Ashwin'
p612
sg9
S'\nturned off the pads to square leg  </p>]'
p613
ssS'27.1'
p614
(dp615
g3
S'Williamson'
p616
sg5
S'no run'
p617
sg7
S' Ashwin'
p618
sg9
S'\nplayed from the crease to midwicket  </p>]'
p619
ssS'21.6'
p620
(dp621
g3
S'Williamson'
p622
sg5
S'1 run'
p623
sg7
S' Jadeja'
p624
sg9
S'\ngoes back and across to work the ball through midwicket  </p>]'
p625
ssS'27.6'
p626
(dp627
g3
S'Taylor'
p628
sg5
g32
sg7
S' Ashwin'
p629
sg9
S'\nTaylor brings out the sweep  hitting the ball from outside off and making good contact  it races to the fine leg boundary  </p>]'
p630
ssS'27.5'
p631
(dp632
g3
S'Taylor'
p633
sg5
S'no run'
p634
sg7
S' Ashwin'
p635
sg9
S'\ndefended on the off side  </p>]'
p636
ssS'27.4'
p637
(dp638
g3
S'Williamson'
p639
sg5
S'1 run'
p640
sg7
S' Ashwin'
p641
sg9
S'\nsteps out this time and drives to long off for a single  </p>]'
p642
ssS'21.1'
p643
(dp644
g3
S'Taylor'
p645
sg5
S'no run'
p646
sg7
S' Jadeja'
p647
sg9
S'\nTaylor moves forward and plays the ball back to the bowler  </p>]'
p648
ssS'12.5'
p649
(dp650
g3
S'Guptill'
p651
sg5
S'no run'
p652
sg7
S' I Sharma'
p653
sg9
S'\na fuller ball on off stump and Guptill meets it on the front foot with a well-timed drive  placed it to mid-off though  </p>]'
p654
ssS'30.4'
p655
(dp656
g3
S'Taylor'
p657
sg5
S'1 run'
p658
sg7
S' I Sharma'
p659
sg9
S'\nthe short ball and Taylor tries to hook  the ball flies off the top edge towards fine leg where it falls short of Shami  </p>]'
p660
ssS'25.1'
p661
(dp662
g3
S'Williamson'
p663
sg5
S'no run'
p664
sg7
S' Ashwin'
p665
sg9
S'\ndefended on the front foot on the off side  </p>]'
p666
ssS'25.3'
p667
(dp668
g3
S'Taylor'
p669
sg5
S'1 run'
p670
sg7
S' Ashwin'
p671
sg9
S'\nnudged off the front foot through midwicket for another no-fuss single  </p>]'
p672
ssS'25.2'
p673
(dp674
g3
S'Williamson'
p675
sg5
S'1 run'
p676
sg7
S' Ashwin'
p677
sg9
S'\nsteps out of the crease and drives the ball in front of square for a single  </p>]'
p678
ssS'25.5'
p679
(dp680
g3
S'Taylor'
p681
sg5
S'1 run'
p682
sg7
S' Ashwin'
p683
sg9
S'\ndriven off the back foot to long on for a single  </p>]'
p684
ssS'25.4'
p685
(dp686
g3
S'Williamson'
p687
sg5
S'1 run'
p688
sg7
S' Ashwin'
p689
sg9
S'\nmoves forward and drives a full ball to long on  </p>]'
p690
ssS'25.6'
p691
(dp692
g3
S'Williamson'
p693
sg5
S'2 runs'
p694
sg7
S' Ashwin'
p695
sg9
S"\nshorter ball  Williamson pulls  it's heading to the square leg boundary but Rahane tumbles and saves the four  </p>]"
p696
ssS'21.2'
p697
(dp698
g3
S'Taylor'
p699
sg5
S'no run'
p700
sg7
S' Jadeja'
p701
sg9
S'\ndefended on the off side  </p>]'
p702
ssS'28.6'
p703
(dp704
g3
S'Williamson'
p705
sg5
S'1 run'
p706
sg7
S' Jadeja'
p707
sg9
S"\nhe wasn't to the pitch of that one but managed to adjust and open the face to play the ball towards point  </p>]"
p708
ssS'23.6'
p709
(dp710
g3
S'Taylor'
p711
sg5
S'no run'
p712
sg7
S' Jadeja'
p713
sg9
S'\nplayed off the back foot to point  </p>]'
p714
ssS'23.5'
p715
(dp716
g3
S'Williamson'
p717
sg5
S'1 run'
p718
sg7
S' Jadeja'
p719
sg9
S'\nhe was looking to play on the leg side but got a leading edge wide of the bowler towards mid off  </p>]'
p720
ssS'23.4'
p721
(dp722
g3
S'Williamson'
p723
sg5
S'no run'
p724
sg7
S' Jadeja'
p725
sg9
S"\nsteps out but isn't to the pitch of the ball  he manages to punch it to mid off though  </p>]"
p726
ssS'23.3'
p727
(dp728
g3
S'Taylor'
p729
sg5
S'1 run'
p730
sg7
S' Jadeja'
p731
sg9
S'\nTaylor moves forward and defends the ball into a gap at cover for a single  </p>]'
p732
ssS'23.2'
p733
(dp734
g3
S'Williamson'
p735
sg5
S'1 run'
p736
sg7
S' Jadeja'
p737
sg9
S'\nworked through midwicket for a single  </p>]'
p738
ssS'23.1'
p739
(dp740
g3
S'Williamson'
p741
sg5
S'no run'
p742
sg7
S' Jadeja'
p743
sg9
S'\nmoves forward and plays the ball with the slight turn away from him towards point  </p>]'
p744
ssS'32.1'
p745
(dp746
g3
S'Williamson'
p747
sg5
S'no run'
p748
sg7
S' I Sharma'
p749
sg9
S'\n132 kph  the short ball outside off  the bounce is rather spongy and loopy  Williamson just lets it go  </p>]'
p750
ssS'32.3'
p751
(dp752
g3
S'Taylor'
p753
sg5
S'1 run'
p754
sg7
S' I Sharma'
p755
sg9
S'\nstrays on to leg again  Taylor moves back and turns the ball off his hips to bring up the 50-run stand for the third wicket  </p>]'
p756
ssS'32.2'
p757
(dp758
g3
S'Williamson'
p759
sg5
S'1 run'
p760
sg7
S' I Sharma'
p761
sg9
S'\n121 kph  a slower ball  Williamson tucks it off his pads in front of square  </p>]'
p762
ssS'32.5'
p763
(dp764
g3
S'Taylor'
p765
sg5
S'1 run'
p766
sg7
S' I Sharma'
p767
sg9
S'\na fuller length outside off  Taylor moves back and across and cuts towards third man  </p>]'
p768
ssS'32.4'
p769
(dp770
g3
S'Williamson'
p771
sg5
S'1 run'
p772
sg7
S' I Sharma'
p773
sg9
S'\nshort of a length outside off  Williamson waits in his crease and opens the face to steer to third man  </p>]'
p774
ssS'32.6'
p775
(dp776
g3
S'Williamson'
p777
sg5
S'1 run'
p778
sg7
S' I Sharma'
p779
sg9
S'\nWilliamson waits a while for the short of a length ball to arrive outside off and then let it run off the open face of his bat towards third man  </p>]'
p780
ssS'33.4'
p781
(dp782
g3
S'Taylor'
p783
sg5
S'2 runs'
p784
sg7
S' Ashwin'
p785
sg9
S'\nTaylor moves across  gets down low and paddle sweeps towards fine leg  </p>]'
p786
ssS'19.4'
p787
(dp788
g3
S'Guptill'
p789
sg5
S'no run'
p790
sg7
S' Ashwin'
p791
sg9
S'\nGuptill moves back and across and plays the ball to midwicket  </p>]'
p792
ssS'33.6'
p793
(dp794
g3
S'Williamson'
p795
sg5
S'1 run'
p796
sg7
S' Ashwin'
p797
sg9
S'\nplayed towards point for a quick single  </p>]'
p798
ssS'33.1'
p799
(dp800
g3
S'Williamson'
p801
sg5
S'1 run'
p802
sg7
S' Ashwin'
p803
sg9
S'\nplayed off the pads behind square for a single  </p>]'
p804
ssS'33.2'
p805
(dp806
g3
S'Taylor'
p807
sg5
S'2 runs'
p808
sg7
S' Ashwin'
p809
sg9
S'\nthat turned and Taylor manages to work it off his pads behind square for single as it begins to rain at Seddon Park ...  </p>]'
p810
ssS'19.5'
p811
(dp812
g3
S'Guptill'
p813
sg5
S'no run'
p814
sg7
S' Ashwin'
p815
sg9
S'\na fuller ball on the pads  driven to midwicket  where the fielder dives to his left to cut it off  </p>]'
p816
ssS'\n'
p817
(dp818
g3
S''
p819
sg5
S' <p class="commsText">\nBen: "It might work on other teams'
p820
sg7
S' '
p821
sg9
S' but the dibbly dobbly is staple fare in NZ. These players have played it since they were in high-school and not much else."\n</p>  <p class="commsText">\n"It\'s a ittle more than a drizzle " says Abhishek Purohit  who\'s our reporter in Hamilton  "but it is overcast in all directions  especially over the ground."\n</p>  <p class="commsText">\nJohn Doe: "Oh My God! MSD again showing that he can be as stubborn as he likes by picking ineffective bowler(s) and then bring in mind the gap part timers only for the opponent to break free. This is truly annoying as an Indian fan  who also knows this is falling to deaf ears :/"\n</p>  <p class="commsText">\nMatt: "Brendon  were you playing in your backyard?"\n</p>  <p class="commsText">\nRakesh S: "@ Brendan; That Ishant is allowed to play cricket at this level itself is a blooming miracle and show\'s the way Indian cricket is managed and how the Pujara\'s &amp; Pathan\'s are kept out  but the Raina\'s &amp; Jadeja\'s are given innumerable oppurtinities by the power\'s that be....."\n</p>  <p class="commsText">\nram: "The intent of Indian Bowlers in recent times is worrying  They bowl to complete 50 overs not to take 10 wickets."\n</p>]'
p822
ssS'19.6'
p823
(dp824
g3
S'Guptill'
p825
sg5
S'no run'
p826
sg7
S' Ashwin'
p827
sg9
S'\ndefended on the front foot  </p>]'
p828
ssS'29.4'
p829
(dp830
g3
S'Williamson'
p831
sg5
S'1 run'
p832
sg7
S' Ashwin'
p833
sg9
S'\ndriven down the ground for a single  </p>]'
p834
ssS'39.6'
p835
(dp836
g3
S'McCullum'
p837
sg5
S'1 run'
p838
sg7
S' Mohammed Shami'
p839
sg9
S'\na low full toss to end the over  McCullum drives to long on for a single. Three runs and two wickets in the over from Shami. Gold for India.  </p>]'
p840
ssS'39.4'
p841
(dp842
g3
S'Taylor'
p843
sg5
g416
sg7
S' Mohammed Shami'
p844
sg9
S"\ncaught behind  Shami's bowling a clever over after Ishant's disastrous one. He bowled a slower short ball and got good height on it too. Taylor pulled far too early and got a top edge that carried through to Dhoni  </p>]"
p845
ssS'39.5'
p846
(dp847
g3
S'McCullum'
p848
sg5
S'no run'
p849
sg7
S' Mohammed Shami'
p850
sg9
S'\nalmost blockhole length once again  just outside off  McCullum drives and misses  </p>]'
p851
ssS'39.2'
p852
(dp853
g3
S'McCullum'
p854
sg5
g416
sg7
S' Mohammed Shami'
p855
sg9
S'\ncaught and bowled first ball! Shami was aiming for the yorker and ended up bowling a very low full toss  McCullum tried to play it towards square leg but closed the face of his bat too early. The ball popped back to the bowler off the leading edge  a simple catch  </p>]'
p856
ssS'39.3'
p857
(dp858
g3
S'Ronchi'
p859
sg5
S'1 run'
p860
sg7
S' Mohammed Shami'
p861
sg9
S'\na tough ball first up  in the blockhole  Ronchi digs it out towards long on for a single  </p>]'
p862
ssS'19.1'
p863
(dp864
g3
S'Guptill'
p865
sg5
S'1 run'
p866
sg7
S' Ashwin'
p867
sg9
S'\ntossed up on middle  Guptill drives to long off on the front foot  </p>]'
p868
ssS'8.1'
p869
(dp870
g3
S'Guptill'
p871
sg5
g32
sg7
S' I Sharma'
p872
sg9
S'\nhis first ball is poor  on the pads  Guptill moves across and glances it between the keeper and leg gully  </p>]'
p873
ssS'21.4'
p874
(dp875
g3
S'Taylor'
p876
sg5
g32
sg7
S' Jadeja'
p877
sg9
S'\na bit too short outside off  Taylor has the space he needs to go back and cut late to the third man boundary  </p>]'
p878
ssS'8.3'
p879
(dp880
g3
S'Guptill'
p881
sg5
S'1 run'
p882
sg7
S' I Sharma'
p883
sg9
S'\nstrays down leg side again  Guptill moves across and works the ball off his hips wide of the fielder at leg gully  </p>]'
p884
ssS'8.2'
p885
(dp886
g3
S'Guptill'
p887
sg5
S'no run'
p888
sg7
S' I Sharma'
p889
sg9
S'\nfull delivery on middle and leg  Guptill is half forward as he pushes towards mid-on  </p>]'
p890
ssS'8.5'
p891
(dp892
g3
S'Williamson'
p893
sg5
S'no run'
p894
sg7
S' I Sharma'
p895
sg9
S'\ngood length on off and middle  Williamson gets behind the line and blocks  </p>]'
p896
ssS'8.4'
p897
(dp898
g3
S'Williamson'
p899
sg5
S'no run'
p900
sg7
S' I Sharma'
p901
sg9
S'\n132 kph  a good length just outside off  Williamson defends solidly on the off side  </p>]'
p902
ssS'21.3'
p903
(dp904
g3
S'Taylor'
p905
sg5
S'no run'
p906
sg7
S' Jadeja'
p907
sg9
S'\nTaylor moves forward and defends on the off side  Jadeja fields himself  </p>]'
p908
ssS'8.6'
p909
(dp910
g3
S'Williamson'
p911
sg5
S'no run'
p912
sg7
S' I Sharma'
p913
sg9
S"\nends the over with a terrific delivery  gets the ball to pitch on a good length and bounce a bit more than usual on this surface  there was some away movement too  Williamson pushed forward to defend and was beaten. Ishant's finished his first over well after two poor deliveries at the start  </p>]"
p914
ssS'19.3'
p915
(dp916
g3
S'Williamson'
p917
sg5
S'1 run'
p918
sg7
S' Ashwin'
p919
sg9
S'\ngoes back into his crease to nudge off his pads through square  </p>]'
p920
ssS'30.3'
p921
(dp922
g3
S'Taylor'
p923
sg5
S'no run'
p924
sg7
S' I Sharma'
p925
sg9
S'\ngood length around off stump  Taylor gets behind it and defends with a straight bat  </p>]'
p926
ssS'9.4'
p927
(dp928
g3
S'Guptill'
p929
sg5
S'no run'
p930
sg7
S' Kumar'
p931
sg9
S'\n134 kph  good length pitching outside off and coming into the right-hander  Guptill gets behind the line and blocks  </p>]'
p932
ssS'9.5'
p933
(dp934
g3
S'Guptill'
p935
sg5
S'no run'
p936
sg7
S' Kumar'
p937
sg9
S'\ndefended back to the bowler  </p>]'
p938
ssS'9.6'
p939
(dp940
g3
S'Guptill'
p941
sg5
S'1 run'
p942
sg7
S' Kumar'
p943
sg9
S"\nGuptill sees mid-off is a bit slow in getting off the blocks and calls for a quick single after tapping the ball off the back foot  there's a direct hit at the striker's end but Williamson is safe  </p>]"
p944
ssS'9.1'
p945
(dp946
g3
S'Guptill'
p947
sg5
S'no run'
p948
sg7
S' Kumar'
p949
sg9
S'\ngood length on off and middle  played back to the bowler  </p>]'
p950
ssS'9.2'
p951
(dp952
g3
S'Guptill'
p953
sg5
S'no run'
p954
sg7
S' Kumar'
p955
sg9
S'\n134 kph  Guptill stays back to a delivery that is a bit full and plays the ball on the off side  the bat face opened as the ball made contact with it  </p>]'
p956
ssS'9.3'
p957
(dp958
g3
S'Guptill'
p959
sg5
S'no run'
p960
sg7
S' Kumar'
p961
sg9
S"\nthat's not that short either but Guptill stays back and pulls  doesn't beat midwicket  </p>]"
p962
ssS'34.4'
p963
(dp964
g3
S'Anderson'
p965
sg5
S'1 run'
p966
sg7
S' Jadeja'
p967
sg9
S'\nplayed to long on for a single  </p>]'
p968
ssS'41.6'
p969
(dp970
g3
S'Ronchi'
p971
sg5
S'1 run'
p972
sg7
S' Mohammed Shami'
p973
sg9
S'\nnearly in the blockhole and Ronchi drives it towards long on  </p>]'
p974
ssS'41.5'
p975
(dp976
g3
S'Ronchi'
p977
sg5
g32
sg7
S' Mohammed Shami'
p978
sg9
S'\nthis is a super shot  Ronchi moves forward and outside leg to make room and drive a length ball flat over extra cover  three dots and then ten off the next two balls  </p>]'
p979
ssS'41.4'
p980
(dp981
g3
S'Ronchi'
p982
sg5
g14
sg7
S' Mohammed Shami'
p983
sg9
S"\nthat's really unlucky for Shami  he's bowled a sharp bouncer and Ronchi slogged at it wildly. He got a top edge  and a really solid top edge because the ball sailed over the long-stop boundary  </p>]"
p984
ssS'41.3'
p985
(dp986
g3
S'Ronchi'
p987
sg5
S'no run'
p988
sg7
S' Mohammed Shami'
p989
sg9
S'\nthis is a terrific start to the final over  Shami bowls a slower ball on a good length  Ronchi mis-times it towards the bowler  </p>]'
p990
ssS'41.2'
p991
(dp992
g3
S'Ronchi'
p993
sg5
S'no run'
p994
sg7
S' Mohammed Shami'
p995
sg9
S'\n140 kph  a length ball outside off  Ronchi backed away a touch and then cut but missed the ball  </p>]'
p996
ssS'30.1'
p997
(dp998
g3
S'Williamson'
p999
sg5
S'no run'
p1000
sg7
S' I Sharma'
p1001
sg9
S'\ngood length outside off  Williamson punches from his crease on the off side  </p>]'
p1002
ssS'30.6'
p1003
(dp1004
g3
S'Taylor'
p1005
sg5
S'1 run'
p1006
sg7
S' I Sharma'
p1007
sg9
S'\nTaylor mis-times the pick-up shot against a length ball angling into him and it falls safely on the edge of the circle at midwicket  </p>]'
p1008
ssS'8.20'
p1009
(dp1010
g3
S'Guptill'
p1011
sg5
g166
sg7
S' I Sharma'
p1012
sg9
S'\nhis second ball is poor too  full and wider own leg side  too far away for Guptill to glance  </p>]'
p1013
ssS'28.1'
p1014
(dp1015
g3
S'Williamson'
p1016
sg5
S'1 run'
p1017
sg7
S' Jadeja'
p1018
sg9
S'\ndriven on the front foot to long off  </p>]'
p1019
ssS'28.2'
p1020
(dp1021
g3
S'Taylor'
p1022
sg5
S'no run'
p1023
sg7
S' Jadeja'
p1024
sg9
S'\ndefended back to the bowler  </p>]'
p1025
ssS'28.3'
p1026
(dp1027
g3
S'Taylor'
p1028
sg5
S'no run'
p1029
sg7
S' Jadeja'
p1030
sg9
S'\ndefended on the back foot  </p>]'
p1031
ssS'28.4'
p1032
(dp1033
g3
S'Taylor'
p1034
sg5
S'1 run'
p1035
sg7
S' Jadeja'
p1036
sg9
S'\na fuller ball angling into the right-hander  driven on the front foot towards long on  </p>]'
p1037
ssS'28.5'
p1038
(dp1039
g3
S'Williamson'
p1040
sg5
S'no run'
p1041
sg7
S' Jadeja'
p1042
sg9
S'\nWilliamson wanted to play on the leg but the turn forced him to defend on the off  </p>]'
p1043
ssS'7.3'
p1044
(dp1045
g3
S'Williamson'
p1046
sg5
S'no run'
p1047
sg7
S' Mohammed Shami'
p1048
sg9
S'\npunched from the crease towards mid-off  </p>]'
p1049
ssS'15.5'
p1050
(dp1051
g3
S'Guptill'
p1052
sg5
g32
sg7
S' Jadeja'
p1053
sg9
S'\nthe length is too short  giving Guptill the freedom to go back and cut from close to off stump  beating the fielder at backward point  </p>]'
p1054
ssS'19.2'
p1055
(dp1056
g3
S'Williamson'
p1057
sg5
S'no run'
p1058
sg7
S' Ashwin'
p1059
sg9
S'\nAshwin dives to his right to prevent a Williamson push from going past  </p>]'
p1060
ssS'38.2'
p1061
(dp1062
g3
S'Anderson'
p1063
sg5
g14
sg7
S' I Sharma'
p1064
sg9
S'\nthat length is rubbish  allows Anderson o get under a half-volley and with enough room outside off to free his arms  he carts the ball far over long-off  this one is not caught in the stands  </p>]'
p1065
ssS'31.6'
p1066
(dp1067
g3
S'Williamson'
p1068
sg5
S'1 run'
p1069
sg7
S' Ashwin'
p1070
sg9
S'\nflat on leg stump  nudged off the pads between square leg and midwicket  </p>]'
p1071
ssS'38.4'
p1072
(dp1073
g3
S'Taylor'
p1074
sg5
S'1 run'
p1075
sg7
S' I Sharma'
p1076
sg9
S'\nin the blockhole and Taylor nudges it towards midwicket for a single  </p>]'
p1077
ssS'31.4'
p1078
(dp1079
g3
S'Taylor'
p1080
sg5
S'1 run'
p1081
sg7
S' Ashwin'
p1082
sg9
S'\nplayed wide of midwicket for a single  </p>]'
p1083
ssS'31.5'
p1084
(dp1085
g3
S'Williamson'
p1086
sg5
S'no run'
p1087
sg7
S' Ashwin'
p1088
sg9
S'\nquicker  skiddy ball  Williamson turns it off his pads to square leg  </p>]'
p1089
ssS'31.2'
p1090
(dp1091
g3
S'Williamson'
p1092
sg5
S'1 run'
p1093
sg7
S' Ashwin'
p1094
sg9
S'\nclipped off the pads in front of square  </p>]'
p1095
ssS'31.3'
p1096
(dp1097
g3
S'Taylor'
p1098
sg5
S'no run'
p1099
sg7
S' Ashwin'
p1100
sg9
S"\nthat's the carrom ball from Ashwin  the length was a bit short though so Taylor adjusted and defended  </p>]"
p1101
ssS'31.1'
p1102
(dp1103
g3
S'Taylor'
p1104
sg5
S'1 run'
p1105
sg7
S' Ashwin'
p1106
sg9
S'\na low full toss  Taylor drives it to long on for a single  </p>]'
p1107
ssS'18.1'
p1108
(dp1109
g3
S'Williamson'
p1110
sg5
S'1 run'
p1111
sg7
S' Raina'
p1112
sg9
S'\npunched off the back foot to deep cover  </p>]'
p1113
ssS'18.3'
p1114
(dp1115
g3
S'Williamson'
p1116
sg5
S'1 run'
p1117
sg7
S' Raina'
p1118
sg9
S'\ngoes back to a fuller ball and dabs it towards point from in front of his stumps  </p>]'
p1119
ssS'18.2'
p1120
(dp1121
g3
S'Guptill'
p1122
sg5
S'1 run'
p1123
sg7
S' Raina'
p1124
sg9
S'\ncut off the back foot to point  </p>]'
p1125
ssS'18.5'
p1126
(dp1127
g3
S'Guptill'
p1128
sg5
S'1 run'
p1129
sg7
S' Raina'
p1130
sg9
S'\npushed off the front foot towards long-on for a single  </p>]'
p1131
ssS'18.4'
p1132
(dp1133
g3
S'Guptill'
p1134
sg5
S'no run'
p1135
sg7
S' Raina'
p1136
sg9
S'\nthat turned into Guptill  who went back to cut but bottom edged it near his feet  </p>]'
p1137
ssS'18.6'
p1138
(dp1139
g3
S'Williamson'
p1140
sg5
S'no run'
p1141
sg7
S' Raina'
p1142
sg9
S"\nbowled quicker through the air and the ball hits Guptill's pads after he misses the glance behind square  </p>]"
p1143
ssS'1.4'
p1144
(dp1145
g3
S'Guptill'
p1146
sg5
S'no run'
p1147
sg7
S' Mohammed Shami'
p1148
sg9
S'\nthe first bouncer of the day and Shami pitched really short to get the ball that high  it looped through to Dhoni after Guptill let it go  </p>]'
p1149
ssS'1.5'
p1150
(dp1151
g3
S'Guptill'
p1152
sg5
S'1 run'
p1153
sg7
S' Mohammed Shami'
p1154
sg9
S'\nclipped off the pads behind square for a single  so Ryder has one ball to face  like he did in the first over  </p>]'
p1155
ssS'1.6'
p1156
(dp1157
g3
S'Ryder'
p1158
sg5
S'no run'
p1159
sg7
S' Mohammed Shami'
p1160
sg9
S'\n140 kph  pitches on a good length in line with the stumps and bounces and slants away from the left-hander from over the wicket  Ryder began to push at the ball but stopped his shot early and let it go  </p>]'
p1161
ssS'3.50'
p1162
(dp1163
g3
S'Ryder'
p1164
sg5
g166
sg7
S' Mohammed Shami'
p1165
sg9
S"\nanother bouncer but this time it sails over the batsman's head and is called a wide  </p>]"
p1166
ssS'1.1'
p1167
(dp1168
g3
S'Guptill'
p1169
sg5
S'no run'
p1170
sg7
S' Mohammed Shami'
p1171
sg9
S'\n135 kph  good length and straight  Guptill gets behind the line and blocks. Hardly any movement for the quicks so far  </p>]'
p1172
ssS'1.2'
p1173
(dp1174
g3
S'Guptill'
p1175
sg5
S'no run'
p1176
sg7
S' Mohammed Shami'
p1177
sg9
S'\n138 kph  fuller length on leg stump  Guptill moves forward and across to flick but misses and gets hit on the outside of his front pad  </p>]'
p1178
ssS'1.3'
p1179
(dp1180
g3
S'Guptill'
p1181
sg5
S'no run'
p1182
sg7
S' Mohammed Shami'
p1183
sg9
S'\na testing line and length on off stump  141 kph  Guptill stays back in his crease and defends on the off side  </p>]'
p1184
ssS'0.1'
p1185
(dp1186
g3
S'Guptill'
p1187
sg5
S'no run'
p1188
sg7
S' Kumar'
p1189
sg9
S"\nwhoops  Guptill nearly gave the bowler a return catch  he closed the face too early to a good length ball and got a leading edge that went too far to Bhuvneshwar's right  </p>]"
p1190
ssS'30.2'
p1191
(dp1192
g3
S'Williamson'
p1193
sg5
S'1 run'
p1194
sg7
S' I Sharma'
p1195
sg9
S'\nWilliamson steps out and then opens the face to steer a length ball behind point  </p>]'
p1196
ssS'0.3'
p1197
(dp1198
g3
S'Guptill'
p1199
sg5
S'2 runs'
p1200
sg7
S' Kumar'
p1201
sg9
S'\n129 kph  Guptil is away with a thick inside edge that goes in front of square leg  he was aiming for straighter  </p>]'
p1202
ssS'0.2'
p1203
(dp1204
g3
S'Guptill'
p1205
sg5
S'no run'
p1206
sg7
S' Kumar'
p1207
sg9
S'\ngood length on off stump  Guptill moves forward and blocks  </p>]'
p1208
ssS'0.5'
p1209
(dp1210
g3
S'Guptill'
p1211
sg5
S'1 run'
p1212
sg7
S' Kumar'
p1213
sg9
S'\n132 kph  a fuller delivery outside off and Guptill moves forward and tries to drive towards mid-off  the ball took the outside edge and squirted past point  </p>]'
p1214
ssS'0.4'
p1215
(dp1216
g3
S'Guptill'
p1217
sg5
S'no run'
p1218
sg7
S' Kumar'
p1219
sg9
S'\na hint of shape away from the right-hander from a good length outside off  Guptill lets it go  </p>]'
p1220
ssS'30.5'
p1221
(dp1222
g3
S'Williamson'
p1223
sg5
S'1 run'
p1224
sg7
S' I Sharma'
p1225
sg9
S'\nWilliamson dabs a good length ball behind point for a single  </p>]'
p1226
ssS'0.6'
p1227
(dp1228
g3
S'Ryder'
p1229
sg5
g32
sg7
S' Kumar'
p1230
sg9
S"\nRyder's smashed his first ball - a full one with lots of width outside off - to the point boundary by moving forward and freeing his arms to cut powerfully  </p>]"
p1231
ssS'38.3'
p1232
(dp1233
g3
S'Anderson'
p1234
sg5
S'1 run'
p1235
sg7
S' I Sharma'
p1236
sg9
S'\nthe slower short ball  Anderson was early on the shot but he adjusted and swatted the ball in front of square leg  </p>]'
p1237
ssS'36.5'
p1238
(dp1239
g3
S'Taylor'
p1240
sg5
g32
sg7
S' Kumar'
p1241
sg9
S'\nthree in a row and Taylor gets to 50! This time he edged a low full toss wide of Dhoni to the third man boundary  Taylor was looking to drive through cover  </p>]'
p1242
ssS'38.1'
p1243
(dp1244
g3
S'Anderson'
p1245
sg5
g14
sg7
S' I Sharma'
p1246
sg9
S"\nhe's been caught in the stands  by a fan in an orange tee-shirt  a one-handed grab to win a $100 grand. Mind-blowing take! Anderson grins  after he had got under a length ball and smashed it over the long-on boundary  </p>]"
p1247
ssS'38.6'
p1248
(dp1249
g3
S'Taylor'
p1250
sg5
S'1 run'
p1251
sg7
S' I Sharma'
p1252
sg9
S'\nshort of a length outside off  Taylor rides the bounce and dabs it down towards point  </p>]'
p1253
ssS'38.5'
p1254
(dp1255
g3
S'Anderson'
p1256
sg5
g416
sg7
S' I Sharma'
p1257
sg9
S"\nhe's gone for it  has he hit it far enough? It's high  very high  but it's not far enough. Dhawan's getting under it at long on  he's back-pedalling to get into position and he judges it superbly. Ishant had bowled a slower ball around a good length to induce the mis-hit from Anderson  </p>]"
p1258
ssS'36.4'
p1259
(dp1260
g3
S'Taylor'
p1261
sg5
g32
sg7
S' Kumar'
p1262
sg9
S'\nwith fine leg in the circle  Taylor moves towards the off side  gets down low  and paddles another full toss wide of short fine leg for another boundary  </p>]'
p1263
ssS'13.6'
p1264
(dp1265
g3
S'Williamson'
p1266
sg5
S'1 run'
p1267
sg7
S' Jadeja'
p1268
sg9
S'\nWilliamson pushes towards long on for a single  </p>]'
p1269
ssS'13.4'
p1270
(dp1271
g3
S'Williamson'
p1272
sg5
S'no run'
p1273
sg7
S' Jadeja'
p1274
sg9
S'\ndefended on the off side  </p>]'
p1275
ssS'13.5'
p1276
(dp1277
g3
S'Williamson'
p1278
sg5
S'no run'
p1279
sg7
S' Jadeja'
p1280
sg9
S'\npushed towards cover off the front foot  </p>]'
p1281
ssS'13.2'
p1282
(dp1283
g3
S'Williamson'
p1284
sg5
g32
sg7
S' Jadeja'
p1285
sg9
S'\ngoes back and uses the shorter length to play a superb back-foot drive to the point boundary  </p>]'
p1286
ssS'13.3'
p1287
(dp1288
g3
S'Williamson'
p1289
sg5
g32
sg7
S' Jadeja'
p1290
sg9
S'\nWilliamson moves forward and then waits before dabbing the ball late  cutting it to the third man boundary  </p>]'
p1291
ssS'13.1'
p1292
(dp1293
g3
S'Williamson'
p1294
sg5
S'no run'
p1295
sg7
S' Jadeja'
p1296
sg9
S'\nWilliamson began to push at the ball and was beaten outside off  </p>]'
p1297
ssS'4.5'
p1298
(dp1299
g3
S'Guptill'
p1300
sg5
S'no run'
p1301
sg7
S' Kumar'
p1302
sg9
S'\nstays in his crease this time to push another good length delivery towards cover  </p>]'
p1303
ssS'4.4'
p1304
(dp1305
g3
S'Guptill'
p1306
sg5
S'no run'
p1307
sg7
S' Kumar'
p1308
sg9
S'\n131 kph  a stingy length on off stump  Guptill strides forward and blocks  </p>]'
p1309
ssS'5.2'
p1310
(dp1311
g3
S'Ryder'
p1312
sg5
g416
sg7
S' Mohammed Shami'
p1313
sg9
S"\nhe's edged it! India have got Ryder. Shami bowled a short of a length ball that angled across the left-hander  Ryder jumped back and tried to upper cut over the slips cordon but was off balance as he did so and got an edge through to Dhoni. I think he was undone by the slowness of this pitch  </p>]"
p1314
ssS'4.6'
p1315
(dp1316
g3
S'Guptill'
p1317
sg5
S'no run'
p1318
sg7
S' Kumar'
p1319
sg9
S'\nmoves slightly back and across in his crease to work the ball towards midwicket  </p>]'
p1320
ssS'4.1'
p1321
(dp1322
g3
S'Ryder'
p1323
sg5
S'no run'
p1324
sg7
S' Kumar'
p1325
sg9
S"\n136 kph  that's accurate from Bhuvneshwar  pitching on middle on a good length  not giving the batsman any room  Ryder defends  </p>]"
p1326
ssS'5.5'
p1327
(dp1328
g3
S'Guptill'
p1329
sg5
S'1 run'
p1330
sg7
S' Mohammed Shami'
p1331
sg9
S'\nstrays on to the pads and Guptill is able to get a single by turning the ball off his hips behind square  </p>]'
p1332
ssS'4.3'
p1333
(dp1334
g3
S'Guptill'
p1335
sg5
S'no run'
p1336
sg7
S' Kumar'
p1337
sg9
S'\ndefended on the back foot on the off side  </p>]'
p1338
ssS'4.2'
p1339
(dp1340
g3
S'Ryder'
p1341
sg5
S'1 run'
p1342
sg7
S' Kumar'
p1343
sg9
S'\ngood length and line once again around middle and off but this time Ryder opens the face late to steer the ball towards third man  </p>]'
p1344
ssS'11.4'
p1345
(dp1346
g3
S'Williamson'
p1347
sg5
S'no run'
p1348
sg7
S' Jadeja'
p1349
sg9
S'\ndefended on the front foot on the off side  </p>]'
p1350
ssS'11.5'
p1351
(dp1352
g3
S'Williamson'
p1353
sg5
S'1 run'
p1354
sg7
S' Jadeja'
p1355
sg9
S'\ndriven off the front foot through cover  </p>]'
p1356
ssS'11.6'
p1357
(dp1358
g3
S'Guptill'
p1359
sg5
S'no run'
p1360
sg7
S' Jadeja'
p1361
sg9
S'\ntight line on middle and off  Guptill moves forward and defends  </p>]'
p1362
ssS'11.1'
p1363
(dp1364
g3
S'Williamson'
p1365
sg5
S'1 run'
p1366
sg7
S' Jadeja'
p1367
sg9
S'\nfull and straight  Williamson drives to long-on for a single  </p>]'
p1368
ssS'11.2'
p1369
(dp1370
g3
S'Guptill'
p1371
sg5
S'no run'
p1372
sg7
S' Jadeja'
p1373
sg9
S'\nbowled slowly to Guptill  who pushes towards mid-off  Jadeja prints across to cut it off himself  </p>]'
p1374
ssS'11.3'
p1375
(dp1376
g3
S'Guptill'
p1377
sg5
S'1 run'
p1378
sg7
S' Jadeja'
p1379
sg9
S'\nplayed towards midwicket off the pads  </p>]'
p1380
ssS'17.2'
p1381
(dp1382
g3
S'Guptill'
p1383
sg5
S'no run'
p1384
sg7
S' Ashwin'
p1385
sg9
S'\nGuptill misses the flick and is hit on the pad  that pitched outside leg stump  </p>]'
p1386
ssS'17.3'
p1387
(dp1388
g3
S'Guptill'
p1389
sg5
S'no run'
p1390
sg7
S' Ashwin'
p1391
sg9
S'\ndriven off the pads to midwicket  </p>]'
p1392
ssS'17.1'
p1393
(dp1394
g3
S'Williamson'
p1395
sg5
S'1 run'
p1396
sg7
S' Ashwin'
p1397
sg9
S'\nfirst ball is on the pads  Williamson drives though midwicket  </p>]'
p1398
ssS'17.6'
p1399
(dp1400
g3
S'Williamson'
p1401
sg5
S'1 run'
p1402
sg7
S' Ashwin'
p1403
sg9
S'\nworked off the pads behind square for a single  </p>]'
p1404
ssS'36.3'
p1405
(dp1406
g3
S'Taylor'
p1407
sg5
g32
sg7
S' Kumar'
p1408
sg9
S'\nTaylor gets under a low full toss and drills it flat and hard wide of the fielder at long-on  it bounces a few feet inside the boundary. Taylor had moved forward and across quickly to get into position  </p>]'
p1409
ssS'17.4'
p1410
(dp1411
g3
S'Guptill'
p1412
sg5
S'no run'
p1413
sg7
S' Ashwin'
p1414
sg9
S'\nbowled slowly through the air on middle and off  defended on the off side  </p>]'
p1415
ssS'17.5'
p1416
(dp1417
g3
S'Guptill'
p1418
sg5
S'1 run'
p1419
sg7
S' Ashwin'
p1420
sg9
S'\nnudged off the front foot through midwicket for one  </p>]'
p1421
ssS'36.2'
p1422
(dp1423
g3
S'Anderson'
p1424
sg5
S'1 run'
p1425
sg7
S' Kumar'
p1426
sg9
S"\na full toss but Anderson can't put it away this time  the line is pretty straight so he clubs it to Dhawan at long-on  </p>]"
p1427
ssS'5.1'
p1428
(dp1429
g3
S'Ryder'
p1430
sg5
g32
sg7
S' Mohammed Shami'
p1431
sg9
S"\nthat wasn't short enough to pull but Ryder does it anyway  smacking it from outside off  it was more of a top edge but the ball fell safely inches from the boundary and trickles over  </p>]"
p1432
ssS'38.20'
p1433
(dp1434
g3
S'Anderson'
p1435
sg5
g166
sg7
S' I Sharma'
p1436
sg9
S"\nIshant's got the yips by the looks of it  another extremely wide wide outside off stump  </p>]"
p1437
ssS'5.3'
p1438
(dp1439
g3
S'Williamson'
p1440
sg5
S'no run'
p1441
sg7
S' Mohammed Shami'
p1442
sg9
S'\ndefended off the back foot on the off side  </p>]'
p1443
ssS'41.1'
p1444
(dp1445
g3
S'Ronchi'
p1446
sg5
S'no run'
p1447
sg7
S' Mohammed Shami'
p1448
sg9
S'\nShami begins the final over with a short ball that beats Ronchi as he tries to back away and slash over the off side  </p>]'
p1449
ssS'29.5'
p1450
(dp1451
g3
S'Taylor'
p1452
sg5
S'no run'
p1453
sg7
S' Ashwin'
p1454
sg9
S'\ndefended from the crease to midwicket  </p>]'
p1455
ssS'5.4'
p1456
(dp1457
g3
S'Williamson'
p1458
sg5
S'1 run'
p1459
sg7
S' Mohammed Shami'
p1460
sg9
S'\nnudged into the leg side for a quick single  </p>]'
p1461
ssS'29.6'
p1462
(dp1463
g3
S'Taylor'
p1464
sg5
S'no run'
p1465
sg7
S' Ashwin'
p1466
sg9
S"\nthe man at leg slip dives to catch the ball but it looks like it came off Taylor's pad as he missed the glance  </p>]"
p1467
ssS'29.1'
p1468
(dp1469
g3
S'Williamson'
p1470
sg5
S'no run'
p1471
sg7
S' Ashwin'
p1472
sg9
S'\nplayed off the front foot to midwicket  </p>]'
p1473
ssS'29.3'
p1474
(dp1475
g3
S'Taylor'
p1476
sg5
S'1 leg bye'
p1477
sg7
S' Ashwin'
p1478
sg9
S'\nTaylor is beaten in the flight as he moves forward and outside off to defend  the ball spins into him and hits the pad and goes past Dhoni for a leg bye  </p>]'
p1479
ssS'29.2'
p1480
(dp1481
g3
S'Williamson'
p1482
sg5
S'1 run'
p1483
sg7
S' Ashwin'
p1484
sg9
S'\nsteps out of his crease and chips the ball to long off for a single  </p>]'
p1485
ssS'15.1'
p1486
(dp1487
g3
S'Guptill'
p1488
sg5
S'no run'
p1489
sg7
S' Jadeja'
p1490
sg9
S'\ndriven firmly into the covers  </p>]'
p1491
ssS'15.2'
p1492
(dp1493
g3
S'Guptill'
p1494
sg5
S'1 run'
p1495
sg7
S' Jadeja'
p1496
sg9
S'\na fuller ball outside off  Guptill moves forward and drives  beats cover this time  </p>]'
p1497
ssS'15.3'
p1498
(dp1499
g3
S'Williamson'
p1500
sg5
S'1 run'
p1501
sg7
S' Jadeja'
p1502
sg9
S'\nWilliamson presses forward and drives to long off  </p>]'
p1503
ssS'15.4'
p1504
(dp1505
g3
S'Guptill'
p1506
sg5
S'no run'
p1507
sg7
S' Jadeja'
p1508
sg9
S'\nplayed towards point on the front foot  </p>]'
p1509
ssS'5.6'
p1510
(dp1511
g3
S'Williamson'
p1512
sg5
S'1 run'
p1513
sg7
S' Mohammed Shami'
p1514
sg9
S'\nagain this pitch is a bit on the slower side  Williamson wanted to play that on the off side and punched too early  the ball went off the inside edge on the leg side  </p>]'
p1515
ssS'15.6'
p1516
(dp1517
g3
S'Guptill'
p1518
sg5
S'1 run'
p1519
sg7
S' Jadeja'
p1520
sg9
S'\ndriven from the crease to long on for a single  </p>]'
p1521
ss.