(dp0
S'6.40'
p1
(dp2
S'to'
p3
S'Guptill'
p4
sS'what'
p5
S'1 wide'
p6
sS'from'
p7
S' Kumar'
p8
sS'why'
p9
S'\nspeared down the leg side for yet another wide. Bhuvi has been uncharacteristically loose with his lines this afternoon  </p>]'
p10
ssS'33.5'
p11
(dp12
g3
S'McCullum'
p13
sg5
S'1 run'
p14
sg7
S' Ashwin'
p15
sg9
S'\nthis time worked past a diving silly mid-on down to long-on for one  </p>]'
p16
ssS'35.2'
p17
(dp18
g3
S'Taylor'
p19
sg5
S'no run'
p20
sg7
S' I Sharma'
p21
sg9
S'\nslower delivery on off  Ross Taylor gets forward to defend it back to Ishant  </p>]'
p22
ssS'35.3'
p23
(dp24
g3
S'Taylor'
p25
sg5
S'1 run'
p26
sg7
S' I Sharma'
p27
sg9
S'\nfuller one on the pads which is clipped to the fielder at deep square leg  </p>]'
p28
ssS'35.1'
p29
(dp30
g3
S'Taylor'
p31
sg5
S'no run'
p32
sg7
S' I Sharma'
p33
sg9
S'\nstarts off with a bouncer which is quite wide as Taylor ends up getting an under-edge to it  </p>]'
p34
ssS'35.6'
p35
(dp36
g3
S'McCullum'
p37
sg5
S'4 run'
p38
sg7
S' I Sharma'
p39
sg9
S'\nback of a length and McCullum dances down to club Ishant back over his head to the boundary. Excellent way to finish off the over by NZ  </p>]'
p40
ssS'35.4'
p41
(dp42
g3
S'McCullum'
p43
sg5
S'3 runs'
p44
sg7
S' I Sharma'
p45
sg9
S'\nlength just outside off which is driven towards long-on  but is reined in before the boundary  </p>]'
p46
ssS'35.5'
p47
(dp48
g3
S'Taylor'
p49
sg5
S'1 run'
p50
sg7
S' I Sharma'
p51
sg9
S'\nable to get an outside edge on this one which ends up being run down to third man  </p>]'
p52
ssS'7.2'
p53
(dp54
g3
S'Guptill'
p55
sg5
S'no run'
p56
sg7
S' Mohammed Shami'
p57
sg9
S'\npitched up on the pads as Guptill looks for the clip through midwicket  but finds silly mid-on  </p>]'
p58
ssS'6.6'
p59
(dp60
g3
S'Guptill'
p61
sg5
S'no run'
p62
sg7
S' Kumar'
p63
sg9
S'\nsolid on the back foot as this one is played back to the bowler  </p>]'
p64
ssS'12.1'
p65
(dp66
g3
S'Taylor'
p67
sg5
S'no run'
p68
sg7
S' Kumar'
p69
sg9
S'\nTaylor already commits to this short of a length delivery on middle and off  with the ball moving away at the last moment  </p>]'
p70
ssS'7.1'
p71
(dp72
g3
S'Williamson'
p73
sg5
S'1 run'
p74
sg7
S' Mohammed Shami'
p75
sg9
S'\ngets this shortish length on the leg side away behind square  </p>]'
p76
ssS'6.3'
p77
(dp78
g3
S'Guptill'
p79
sg5
S'no run'
p80
sg7
S' Kumar'
p81
sg9
S'\nright up in the blockhole as Guptill drives this one towards mid-off  but Jadeja is quick onto this one as he picks this up just to the right of him  </p>]'
p82
ssS'12.6'
p83
(dp84
g3
S'Taylor'
p85
sg5
S'no run'
p86
sg7
S' Kumar'
p87
sg9
S'\nfull from Bhuvi as this is driven down to the man at silly mid-on  </p>]'
p88
ssS'6.1'
p89
(dp90
g3
S'Williamson'
p91
sg5
S'1 leg bye'
p92
sg7
S' Kumar'
p93
sg9
S'\npitched full and on the pads as this one swings away at the last moment as Williamson looks for the clip behind square. Ends up being called a leg-bye  </p>]'
p94
ssS'12.4'
p95
(dp96
g3
S'Williamson'
p97
sg5
S'2 runs'
p98
sg7
S' Kumar'
p99
sg9
S'\nWilliamson able to clip a delivery on middle and leg down to deep midwicket for a couple  </p>]'
p100
ssS'37.1'
p101
(dp102
g3
S'Anderson'
p103
sg5
S'no run'
p104
sg7
S' I Sharma'
p105
sg9
S'\nis quite content to let this back of a length delivery to go across him to the keeper  </p>]'
p106
ssS'37.2'
p107
(dp108
g3
S'Anderson'
p109
sg5
S'no run'
p110
sg7
S' I Sharma'
p111
sg9
S'\nthis time Ishant gets the ball to jag back off a similar line  which hits Anderson on the stomach  </p>]'
p112
ssS'37.3'
p113
(dp114
g3
S'Anderson'
p115
sg5
S'1 run'
p116
sg7
S' I Sharma'
p117
sg9
S'\nshort again and Anderson is onto this in a flash as he pulls this straight to deep square leg  </p>]'
p118
ssS'37.4'
p119
(dp120
g3
S'McCullum'
p121
sg5
S'1 run'
p122
sg7
S' I Sharma'
p123
sg9
S'\nfull and on the pads as this is driven down to long-on for a single  </p>]'
p124
ssS'37.5'
p125
(dp126
g3
S'Anderson'
p127
sg5
S'1 run'
p128
sg7
S' I Sharma'
p129
sg9
S'\nplays this one with soft hands to the off side to take a quick single  </p>]'
p130
ssS'37.6'
p131
(dp132
g3
S'McCullum'
p133
sg5
S'no run'
p134
sg7
S' I Sharma'
p135
sg9
S'\nlow full toss heading down the pads as McCullum flicks this one straight to square leg. Should have done better as this was a gimme ball  and the bowler is Ishant  after all  </p>]'
p136
ssS'42.3'
p137
(dp138
g3
S'Ronchi'
p139
sg5
S'1 run'
p140
sg7
S' Ashwin'
p141
sg9
S"\ndriven down to mid-off before setting off for a tight single as Jadeja  one of India's best fielders  is on to it quickly as he picks up and releases the throw  but is unlucky to miss the stumps as Ronchi was well short  </p>]"
p142
ssS'10.1'
p143
(dp144
g3
S'Taylor'
p145
sg5
S'1 run'
p146
sg7
S' Kumar'
p147
sg9
S'\nangling down the pads as this is helped behind square towards fine leg  </p>]'
p148
ssS'10.3'
p149
(dp150
g3
S'Williamson'
p151
sg5
S'no run'
p152
sg7
S' Kumar'
p153
sg9
S'\npushes this off the back foot towards the fielder at silly mid-on  </p>]'
p154
ssS'10.2'
p155
(dp156
g3
S'Williamson'
p157
sg5
S'no run'
p158
sg7
S' Kumar'
p159
sg9
S'\nfuller one just outside off which nips away slightly upon pitching  </p>]'
p160
ssS'10.5'
p161
(dp162
g3
S'Williamson'
p163
sg5
S'1 run'
p164
sg7
S' Kumar'
p165
sg9
S'\nlooks to carve this behind square on the off side  and finds the man at third man  </p>]'
p166
ssS'10.4'
p167
(dp168
g3
S'Williamson'
p169
sg5
S'no run'
p170
sg7
S' Kumar'
p171
sg9
S'\nonce again defended off the back foot by Williamson  </p>]'
p172
ssS'10.6'
p173
(dp174
g3
S'Taylor'
p175
sg5
S'no run'
p176
sg7
S' Kumar'
p177
sg9
S'\nallows this length delivery outside off to shape away and be collected by the keeper  </p>]'
p178
ssS'43.1'
p179
(dp180
g3
S'Ronchi'
p181
sg5
g38
sg7
S' Mohammed Shami'
p182
sg9
S"\nlength on middle and leg which is hit over the bowler's head  and beats a diving long-off to the boundary  </p>]"
p183
ssS'33.3'
p184
(dp185
g3
S'McCullum'
p186
sg5
S'no run'
p187
sg7
S' Ashwin'
p188
sg9
S'\nheading down the pads as this is turned away to short backward square  </p>]'
p189
ssS'44.6'
p190
(dp191
g3
S'Ronchi'
p192
sg5
S'2 runs'
p193
sg7
S' Jadeja'
p194
sg9
S'\npitches this outside off as Ronchi picks the gap at deep extra-cover for a brace  </p>]'
p195
ssS'7.60'
p196
(dp197
g3
S'Taylor'
p198
sg5
g6
sg7
S' Mohammed Shami'
p199
sg9
S'\nShami decides to show off his bouncer to the Napier crowd as this one rears appreciably to Dhoni  who has to jump quite high to get his hands on it. Called wide by the umpire  </p>]'
p200
ssS'16.5'
p201
(dp202
g3
S'Taylor'
p203
sg5
S'no run'
p204
sg7
S' I Sharma'
p205
sg9
S'\nan enthusiastic appeal for LBW. The umpire is nonplussed.  </p>]'
p206
ssS'16.4'
p207
(dp208
g3
S'Taylor'
p209
sg5
S'no run'
p210
sg7
S' I Sharma'
p211
sg9
S'\nfires in a bouncer as Taylor is quickly into position to have a go  but is far too early into his shot as this one climbs over him to the keeper  </p>]'
p212
ssS'16.3'
p213
(dp214
g3
S'Williamson'
p215
sg5
S'1 run'
p216
sg7
S' I Sharma'
p217
sg9
S'\nshortish length outside off which is run down to third man  </p>]'
p218
ssS'16.2'
p219
(dp220
g3
S'Williamson'
p221
sg5
S'no run'
p222
sg7
S' I Sharma'
p223
sg9
S'\nWilliamson gets low to this fuller one just outside off as he looks to squirt this away behind point  </p>]'
p224
ssS'16.1'
p225
(dp226
g3
S'Williamson'
p227
sg5
g38
sg7
S' I Sharma'
p228
sg9
S'\nWilliamson able to guide this fuller one from Ishant straight to the deep midwicket boundary for four. Poor bowling again from Ishant  who is letting off the pressure established from the opening bowlers  </p>]'
p229
ssS'44.1'
p230
(dp231
g3
S'Ronchi'
p232
sg5
S'6 run'
p233
sg7
S' Jadeja'
p234
sg9
S'\nRonchi does not care that Jadeja was the No.1 ODI bowler at one point of time last year. He just slog sweeps the heck out of this flatter delivery  with the ball climbing so high that it almost likes he has given a catch in the deep  but just lands over the midwicket boundary  </p>]'
p235
ssS'43.2'
p236
(dp237
g3
S'Ronchi'
p238
sg5
S'1 run'
p239
sg7
S' Mohammed Shami'
p240
sg9
S'\nback of a length and pulled away to deep square leg  </p>]'
p241
ssS'43.4'
p242
(dp243
g3
S'Anderson'
p244
sg5
S'no run'
p245
sg7
S' Mohammed Shami'
p246
sg9
S'\nchanges tactics by going round the wicket  and almost gets Anderson to edge one behind to Dhoni  </p>]'
p247
ssS'2.10'
p248
(dp249
g3
S'Guptill'
p250
sg5
g6
sg7
S' Kumar'
p251
sg9
S'\nBhuvi still struggling to get his radar on track as he spears this one down the leg side  </p>]'
p252
ssS'14.4'
p253
(dp254
g3
S'Taylor'
p255
sg5
S'no run'
p256
sg7
S' I Sharma'
p257
sg9
S'\ndefended off the back foot by Taylor  </p>]'
p258
ssS'45.3'
p259
(dp260
g3
S'Anderson'
p261
sg5
S'1 run'
p262
sg7
S' Kumar'
p263
sg9
S'\nAnderson almost succeeds in dragging this fuller one just outside off onto his stumps  but is still able to eke out a run  </p>]'
p264
ssS'45.2'
p265
(dp266
g3
S'Ronchi'
p267
sg5
S'1 run'
p268
sg7
S' Kumar'
p269
sg9
S"\nfires in a yorker which has Bhuvi sprawled on the ground as this is hit uppishly back to the bowler  but Bhuvi can't quite reach it  </p>]"
p270
ssS'45.1'
p271
(dp272
g3
S'Anderson'
p273
sg5
S'1 run'
p274
sg7
S' Kumar'
p275
sg9
S'\nspears in a fuller one across Anderson as this is drilled down to the man at long-off  </p>]'
p276
ssS'45.6'
p277
(dp278
g3
S'Anderson'
p279
sg5
S'1 run'
p280
sg7
S' Kumar'
p281
sg9
S"\nlow full toss across the batsman as Anderson clubs him over extra-cover for a single. Ends Bhuvi's spell as well  </p>]"
p282
ssS'45.5'
p283
(dp284
g3
S'Anderson'
p285
sg5
S'2 runs'
p286
sg7
S' Kumar'
p287
sg9
S'\nfull and just outside off as he commits hard for the first run  before returning for the second when the fielder bobbles the ball at deep extra-cover  </p>]'
p288
ssS'45.4'
p289
(dp290
g3
S'Ronchi'
p291
sg5
S'1 run'
p292
sg7
S' Kumar'
p293
sg9
S'\ngets this one completely wrong as he offers a full toss which Ronchi fails to get away as this is hit straight to long-on  </p>]'
p294
ssS'26.6'
p295
(dp296
g3
S'Taylor'
p297
sg5
S'no run'
p298
sg7
S' Jadeja'
p299
sg9
S"\nRavindra Jadeja keeps it tight  Taylor drives  but can't beat a sliding cover. Just the single off that over - a good one for India  </p>]"
p300
ssS'26.4'
p301
(dp302
g3
S'Taylor'
p303
sg5
S'no run'
p304
sg7
S' Jadeja'
p305
sg9
S'\ndefended to the fielder at short cover  </p>]'
p306
ssS'26.5'
p307
(dp308
g3
S'Taylor'
p309
sg5
S'no run'
p310
sg7
S' Jadeja'
p311
sg9
S'\nlooks to guide this away from behind square on the off side  </p>]'
p312
ssS'26.2'
p313
(dp314
g3
S'Taylor'
p315
sg5
S'no run'
p316
sg7
S' Jadeja'
p317
sg9
S'\ndefended tentatively by Taylor on the back foot  </p>]'
p318
ssS'26.3'
p319
(dp320
g3
S'Taylor'
p321
sg5
S'no run'
p322
sg7
S' Jadeja'
p323
sg9
S'\ndriven straight back to the bowler by Taylor  </p>]'
p324
ssS'26.1'
p325
(dp326
g3
S'Williamson'
p327
sg5
S'1 run'
p328
sg7
S' Jadeja'
p329
sg9
S'\nshimmies down a touch before driving this fuller one down to long-off  </p>]'
p330
ssS'14.5'
p331
(dp332
g3
S'Taylor'
p333
sg5
g38
sg7
S' I Sharma'
p334
sg9
S'\nshuffles over to the off side to help this delivery angled down the pads to the fine leg boundary  </p>]'
p335
ssS'12.3'
p336
(dp337
g3
S'Taylor'
p338
sg5
S'1 run'
p339
sg7
S' Kumar'
p340
sg9
S'\ndefends this fuller one to the off side  </p>]'
p341
ssS'14.6'
p342
(dp343
g3
S'Taylor'
p344
sg5
S'no run'
p345
sg7
S' I Sharma'
p346
sg9
S'\nfull and heading down the pads as Taylor fails to get this away to fine leg. Taylor quite cross with himself  </p>]'
p347
ssS'14.1'
p348
(dp349
g3
S'Taylor'
p350
sg5
S'1 run'
p351
sg7
S' I Sharma'
p352
sg9
S'\nturns this away to the man at mid-on for one  </p>]'
p353
ssS'14.3'
p354
(dp355
g3
S'Williamson'
p356
sg5
S'1 run'
p357
sg7
S' I Sharma'
p358
sg9
S'\nable to run this one outside off to the fielder at third man  </p>]'
p359
ssS'12.2'
p360
(dp361
g3
S'Taylor'
p362
sg5
S'no run'
p363
sg7
S' Kumar'
p364
sg9
S'\nlooks to play this offering from Ishant with soft hands through point  but the fielder is up to the task  </p>]'
p365
ssS'24.4'
p366
(dp367
g3
S'Williamson'
p368
sg5
S'no run'
p369
sg7
S' Jadeja'
p370
sg9
S'\ncuts this one away outside off  </p>]'
p371
ssS'24.5'
p372
(dp373
g3
S'Williamson'
p374
sg5
S'1 run'
p375
sg7
S' Jadeja'
p376
sg9
S'\ndrives this one just outside off to the fielder at point  </p>]'
p377
ssS'24.6'
p378
(dp379
g3
S'Taylor'
p380
sg5
S'no run'
p381
sg7
S' Jadeja'
p382
sg9
S'\nforward straight away to end this tidy over from Jadeja  </p>]'
p383
ssS'14.2'
p384
(dp385
g3
S'Williamson'
p386
sg5
g38
sg7
S' I Sharma'
p387
sg9
S'\ntoo full from Ishant as this is clipped away sweetly by Williamson  who looked quite assured as he played that one away to midwicket for four  </p>]'
p388
ssS'6.5'
p389
(dp390
g3
S'Guptill'
p391
sg5
S'no run'
p392
sg7
S' Kumar'
p393
sg9
S'\nonce again left alone just outside off by Guptill  </p>]'
p394
ssS'24.2'
p395
(dp396
g3
S'Williamson'
p397
sg5
S'1 run'
p398
sg7
S' Jadeja'
p399
sg9
S'\nthis time eased down to long-on for one  </p>]'
p400
ssS'24.3'
p401
(dp402
g3
S'Taylor'
p403
sg5
S'1 run'
p404
sg7
S' Jadeja'
p405
sg9
S'\nleans into  a drive down to cover  but the fielder is there to keep tabs on it  </p>]'
p406
ssS'22.2'
p407
(dp408
g3
S'Williamson'
p409
sg5
g38
sg7
S' Jadeja'
p410
sg9
S'\nshort and wide and Williamson punishes Jadeja with a square cut that just races to the boundary  </p>]'
p411
ssS'22.3'
p412
(dp413
g3
S'Williamson'
p414
sg5
S'1 run'
p415
sg7
S' Jadeja'
p416
sg9
S'\non the back foot to play this away to midwicket for a single  </p>]'
p417
ssS'49.5'
p418
(dp419
g3
S'Anderson'
p420
sg5
S'1 run'
p421
sg7
S' I Sharma'
p422
sg9
S'\nexcellent ball again as Anderson just squeezes this out in front of point for a single  </p>]'
p423
ssS'6.4'
p424
(dp425
g3
S'Guptill'
p426
sg5
S'no run'
p427
sg7
S' Kumar'
p428
sg9
S'\nlength just outside off which nibbles away slightly as Guptill shoulders arms  </p>]'
p429
ssS'22.6'
p430
(dp431
g3
S'Williamson'
p432
sg5
S'no run'
p433
sg7
S' Jadeja'
p434
sg9
S"\ndances down the track as he drills this back to Jadeja  who picks it up quickly before firing it back at the batsman's stumps  </p>]"
p435
ssS'49.2'
p436
(dp437
g3
S'Southee'
p438
sg5
S'no run'
p439
sg7
S' I Sharma'
p440
sg9
S'\nfires in a yorker that just misses leg stump as Southee backs away to hit him over the off side  </p>]'
p441
ssS'22.4'
p442
(dp443
g3
S'Taylor'
p444
sg5
S'no run'
p445
sg7
S' Jadeja'
p446
sg9
S'\ndriven straight back to Jadeja by Taylor  </p>]'
p447
ssS'22.5'
p448
(dp449
g3
S'Taylor'
p450
sg5
S'3 runs'
p451
sg7
S' Jadeja'
p452
sg9
S'\ncuts this away outside off  getting it just past point  as the pair are able to run three  </p>]'
p453
ssS'7.6'
p454
(dp455
g3
S'Taylor'
p456
sg5
S'no run'
p457
sg7
S' Mohammed Shami'
p458
sg9
S'\nslanting down the leg side  but just nipping back  as this one strikes the left thigh pad of Taylor  </p>]'
p459
ssS'43.6'
p460
(dp461
g3
S'Anderson'
p462
sg5
g38
sg7
S' Mohammed Shami'
p463
sg9
S'\nfull and wide and clobbered by Anderson to a vacant extra-cover region for a boundary. Shami has simply been taken to the cleaners by Anderson. How many more can the southpaw get?  </p>]'
p464
ssS'6.2'
p465
(dp466
g3
S'Guptill'
p467
sg5
S'2 runs'
p468
sg7
S' Kumar'
p469
sg9
S'\ngets some prominent inswing just outside off as Guptill angles this away leg side for a brace  </p>]'
p470
ssS'7.4'
p471
(dp472
g3
S'Guptill'
p473
sg5
S'OUT'
p474
sg7
S' Mohammed Shami'
p475
sg9
S"\nShami shifts his line outside off and is rewarded as Guptill's patience wears thin. Looks to cut this away off the back foot  but ends up giving an outside edge which is caught at a comfortable height by Ashwin at first slip. Shami has now struck twice  and both New Zealand openers are back in the hut early on  </p>]"
p476
ssS'34.6'
p477
(dp478
g3
S'McCullum'
p479
sg5
g38
sg7
S' Kumar'
p480
sg9
S'\njust a hint of with as McCullum pounces on this one quickly to cut this away behind point for four  </p>]'
p481
ssS'34.5'
p482
(dp483
g3
S'McCullum'
p484
sg5
S'no run'
p485
sg7
S' Kumar'
p486
sg9
S'\nsolid in defence as he stays grounded on the back foot  </p>]'
p487
ssS'7.5'
p488
(dp489
g3
S'Taylor'
p490
sg5
S'no run'
p491
sg7
S' Mohammed Shami'
p492
sg9
S'\ngets forward right away to this length ball on and around off  </p>]'
p493
ssS'34.3'
p494
(dp495
g3
S'Taylor'
p496
sg5
S'1 run'
p497
sg7
S' Kumar'
p498
sg9
S'\nlate cuts this shortish length outside off to the man at third man  </p>]'
p499
ssS'34.2'
p500
(dp501
g3
S'Taylor'
p502
sg5
S'no run'
p503
sg7
S' Kumar'
p504
sg9
S'\npushed off the back foot to the fielder inside the circle  </p>]'
p505
ssS'34.1'
p506
(dp507
g3
S'McCullum'
p508
sg5
S'1 run'
p509
sg7
S' Kumar'
p510
sg9
S'\nshortish length just outside off which McCullum just gets away with a back foot cut  </p>]'
p511
ssS'24.1'
p512
(dp513
g3
S'Williamson'
p514
sg5
S'no run'
p515
sg7
S' Jadeja'
p516
sg9
S'\nflatter delivery drilled straight to silly mid-off  </p>]'
p517
ssS'3.6'
p518
(dp519
g3
S'Ryder'
p520
sg5
g474
sg7
S' Mohammed Shami'
p521
sg9
S'\nand Shami gets him with a fuller one on a similar line as Ryder is in two minds to play this one  looking to once again go for the pick-up flick  but was never really in position for it to be executed properly  </p>]'
p522
ssS'3.4'
p523
(dp524
g3
S'Ryder'
p525
sg5
S'no run'
p526
sg7
S' Mohammed Shami'
p527
sg9
S'\nonce again pushes this cautiously to the man at backward point  </p>]'
p528
ssS'3.5'
p529
(dp530
g3
S'Ryder'
p531
sg5
g38
sg7
S' Mohammed Shami'
p532
sg9
S'\nshort on leg stump as Ryder is in position to play his trademark pick-up flick  this time behind square leg  for a boundary  which fell just inches from the rope  </p>]'
p533
ssS'3.2'
p534
(dp535
g3
S'Ryder'
p536
sg5
S'no run'
p537
sg7
S' Mohammed Shami'
p538
sg9
S'\nRyder on the back foot as he looks to guide this back of a length delivery past the fielder at backward point  but the player makes a fine diving stop to his left to keep in control of it  </p>]'
p539
ssS'3.3'
p540
(dp541
g3
S'Ryder'
p542
sg5
S'no run'
p543
sg7
S' Mohammed Shami'
p544
sg9
S'\nRyder looking very tentative outside the off stump as Ryder looks to play this off the back foot with his hands  as opposed to stepping into the line of the ball  </p>]'
p545
ssS'3.1'
p546
(dp547
g3
S'Ryder'
p548
sg5
S'no run'
p549
sg7
S' Mohammed Shami'
p550
sg9
S'\nRyder with a tentative forward prod to this shortish length slanting across him to the keeper  </p>]'
p551
ssS'2.3'
p552
(dp553
g3
S'Guptill'
p554
sg5
S'no run'
p555
sg7
S' Kumar'
p556
sg9
S'\ngets this to shape back into the batsman off a length  so there is definitely some movement on offer for the new-ball bowlers  </p>]'
p557
ssS'2.2'
p558
(dp559
g3
S'Guptill'
p560
sg5
S'no run'
p561
sg7
S' Kumar'
p562
sg9
S'\nshifts his line a bit wider outside off as this one swings considerably away. I really thought this one should have been called a wide  but the umpire is unmoved  </p>]'
p563
ssS'2.1'
p564
(dp565
g3
S'Guptill'
p566
sg5
S'no run'
p567
sg7
S' Kumar'
p568
sg9
S'\nthis time entices Guptill to have a play and a miss to this back of a length delivery outside off. Guptill was quick to draw the bat in  </p>]'
p569
ssS'36.6'
p570
(dp571
g3
S'Anderson'
p572
sg5
S'1 run'
p573
sg7
S' Mohammed Shami'
p574
sg9
S'\non the pads as this is helped off the hips for a single  </p>]'
p575
ssS'36.1'
p576
(dp577
g3
S'Taylor'
p578
sg5
S'no run'
p579
sg7
S' Mohammed Shami'
p580
sg9
S'\nstarts off with a shortish length outside off which is cut straight to point  </p>]'
p581
ssS'2.6'
p582
(dp583
g3
S'Guptill'
p584
sg5
S'no run'
p585
sg7
S' Kumar'
p586
sg9
S'\ncontent to let this one outside off  and shaping away slightly  to the keeper  </p>]'
p587
ssS'2.5'
p588
(dp589
g3
S'Guptill'
p590
sg5
S'no run'
p591
sg7
S' Kumar'
p592
sg9
S'\nshortish length just shaping away outside off as Guptill pushes this to the man at short cover  </p>]'
p593
ssS'2.4'
p594
(dp595
g3
S'Guptill'
p596
sg5
S'no run'
p597
sg7
S' Kumar'
p598
sg9
S'\nteases Guptill with a length delivery outside off as he looks to have a go at it  but is a bit early in his shot as this one is pushed through to the keeper  </p>]'
p599
ssS'20.1'
p600
(dp601
g3
S'Taylor'
p602
sg5
S'no run'
p603
sg7
S' Jadeja'
p604
sg9
S'\ndriven handsomely to short cover point  who is all over this like white on rice  </p>]'
p605
ssS'20.2'
p606
(dp607
g3
S'Taylor'
p608
sg5
S'1 run'
p609
sg7
S' Jadeja'
p610
sg9
S'\nthis time eased down to the man at long-on for one  </p>]'
p611
ssS'20.3'
p612
(dp613
g3
S'Williamson'
p614
sg5
S'1 run'
p615
sg7
S' Jadeja'
p616
sg9
S'\npushes this back of a length delivery off the back foot to the right of Jadeja  who is quick to get to it  </p>]'
p617
ssS'20.4'
p618
(dp619
g3
S'Taylor'
p620
sg5
S'no run'
p621
sg7
S' Jadeja'
p622
sg9
S'\ndefended tentatively to the off side by Taylor  </p>]'
p623
ssS'20.5'
p624
(dp625
g3
S'Taylor'
p626
sg5
S'1 run'
p627
sg7
S' Jadeja'
p628
sg9
S'\nthis time able to pierce the gap on the off side for a tight single  </p>]'
p629
ssS'20.6'
p630
(dp631
g3
S'Williamson'
p632
sg5
S'no run'
p633
sg7
S' Jadeja'
p634
sg9
S'\ndriven straight back to the bowler to end the over  </p>]'
p635
ssS'49.6'
p636
(dp637
g3
S'Southee'
p638
sg5
S'2 runs'
p639
sg7
S' I Sharma'
p640
sg9
S'\nfires in a yorker outside off which has Southee shuffling across his stumps before attempting a paddle-flick over fine leg  but this one goes higher than farther as backward square is able to run it down and stop it from getting to the boundary  </p>]'
p641
ssS'46.3'
p642
(dp643
g3
S'Anderson'
p644
sg5
S'2 runs'
p645
sg7
S' Mohammed Shami'
p646
sg9
S'\nslices this full and wide delivery outside off to the man at sweeper cover  which also brings up a quickfire <b>fifty</b> from Anderson  and that too off just 30 balls. Can he double it in the limited time we have?  </p>]'
p647
ssS'42.1'
p648
(dp649
g3
S'Anderson'
p650
sg5
S'1 run'
p651
sg7
S' Ashwin'
p652
sg9
S'\nAnderson pulls this shortish length delivery to the man at deep midwicket  </p>]'
p653
ssS'22.1'
p654
(dp655
g3
S'Williamson'
p656
sg5
S'no run'
p657
sg7
S' Jadeja'
p658
sg9
S'\ndefended on the front foot by Williamson to the off side  </p>]'
p659
ssS'49.20'
p660
(dp661
g3
S'Southee'
p662
sg5
g6
sg7
S' I Sharma'
p663
sg9
S'\nshort and well outside off as Ishant gets this horribly wrong  with the umpire confirming with the signal for a wide  </p>]'
p664
ssS'49.3'
p665
(dp666
g3
S'Southee'
p667
sg5
S'1 run'
p668
sg7
S' I Sharma'
p669
sg9
S"\nfull again as Southee hits this straight to mid-on  who takes a shy at the non-striker's  but misses the stumps  </p>]"
p670
ssS'39.1'
p671
(dp672
g3
S'McCullum'
p673
sg5
S'1 run'
p674
sg7
S' I Sharma'
p675
sg9
S'\nlow full toss which is driven straight down to long-off. Looks disappointed as he should have done better with it  </p>]'
p676
ssS'21.5'
p677
(dp678
g3
S'Taylor'
p679
sg5
S'1 run'
p680
sg7
S' Ashwin'
p681
sg9
S'\nable to squirt this flatter delivery outside off to short third man for a quick-run single  </p>]'
p682
ssS'49.1'
p683
(dp684
g3
S'Anderson'
p685
sg5
S'1 run'
p686
sg7
S' I Sharma'
p687
sg9
S'\nthis fuller one is played away to the off side by Anderson for a single  </p>]'
p688
ssS'40.2'
p689
(dp690
g3
S'McCullum'
p691
sg5
S'1 run'
p692
sg7
S' Ashwin'
p693
sg9
S'\nquicker one heading down the pads as this is helped to the leg side for a single  </p>]'
p694
ssS'40.3'
p695
(dp696
g3
S'Anderson'
p697
sg5
g233
sg7
S' Ashwin'
p698
sg9
S'\nAnderson just hammers this length ball outside off from Ashwin as he hits this against the turn over midwicket for six  </p>]'
p699
ssS'40.1'
p700
(dp701
g3
S'McCullum'
p702
sg5
S'no run'
p703
sg7
S' Ashwin'
p704
sg9
S'\ngets forward straight away to defend this to the off side  </p>]'
p705
ssS'40.6'
p706
(dp707
g3
S'Anderson'
p708
sg5
S'1 run'
p709
sg7
S' Ashwin'
p710
sg9
S'\nhelped off the pads towards the leg side to retain the strike  </p>]'
p711
ssS'40.4'
p712
(dp713
g3
S'Anderson'
p714
sg5
S'1 run'
p715
sg7
S' Ashwin'
p716
sg9
S'\nthis time backs away to cut this down to sweeper cover for a single  </p>]'
p717
ssS'40.5'
p718
(dp719
g3
S'McCullum'
p720
sg5
S'1 run'
p721
sg7
S' Ashwin'
p722
sg9
S'\ndirects this one to the off side for a quick single  </p>]'
p723
ssS'27.3'
p724
(dp725
g3
S'Williamson'
p726
sg5
S'no run'
p727
sg7
S' Ashwin'
p728
sg9
S'\npunched off the back foot straight back to the bowler  </p>]'
p729
ssS'27.2'
p730
(dp731
g3
S'Taylor'
p732
sg5
S'1 run'
p733
sg7
S' Ashwin'
p734
sg9
S'\ndriven on the front foot down to long-on for one  </p>]'
p735
ssS'27.1'
p736
(dp737
g3
S'Williamson'
p738
sg5
S'1 run'
p739
sg7
S' Ashwin'
p740
sg9
S'\ndirected down to long-off for one  </p>]'
p741
ssS'21.6'
p742
(dp743
g3
S'Williamson'
p744
sg5
S'1 run'
p745
sg7
S' Ashwin'
p746
sg9
S'\nworked off the back foot to midwicket to finish the over  </p>]'
p747
ssS'43.3'
p748
(dp749
g3
S'Anderson'
p750
sg5
g233
sg7
S' Mohammed Shami'
p751
sg9
S'\nAnderson just crunches this back of a length delivery from Shami well over the square leg boundary to once again land another ball on the roof. That makes it twice today from Anderson. This is really ominous for India  </p>]'
p752
ssS'16.6'
p753
(dp754
g3
S'Taylor'
p755
sg5
S'no run'
p756
sg7
S' I Sharma'
p757
sg9
S'\nanother bouncer outside off  this time the slower ball  as Taylor is once again too early into his shot  </p>]'
p758
ssS'27.5'
p759
(dp760
g3
S'Taylor'
p761
sg5
S'no run'
p762
sg7
S' Ashwin'
p763
sg9
S'\nturned to the straightish midwicket fielder  </p>]'
p764
ssS'27.4'
p765
(dp766
g3
S'Williamson'
p767
sg5
S'1 run'
p768
sg7
S' Ashwin'
p769
sg9
S'\neased down to long-off for one  </p>]'
p770
ssS'21.1'
p771
(dp772
g3
S'Taylor'
p773
sg5
S'no run'
p774
sg7
S' Ashwin'
p775
sg9
S'\nplayed tentatively to the leg side by Taylor  </p>]'
p776
ssS'42.2'
p777
(dp778
g3
S'Ronchi'
p779
sg5
S'no run'
p780
sg7
S' Ashwin'
p781
sg9
S'\ngets solidly behind the line of this latest offering from Ashwin  </p>]'
p782
ssS'12.5'
p783
(dp784
g3
S'Williamson'
p785
sg5
S'1 run'
p786
sg7
S' Kumar'
p787
sg9
S'\nWilliamson content to play this off the back foot toward backward point for a quick single  </p>]'
p788
ssS'42.4'
p789
(dp790
g3
S'Anderson'
p791
sg5
S'1 run'
p792
sg7
S' Ashwin'
p793
sg9
S'\nmanages to squeeze a run down to long-on  </p>]'
p794
ssS'30.4'
p795
(dp796
g3
S'Taylor'
p797
sg5
S'no run'
p798
sg7
S' Jadeja'
p799
sg9
S'\nflatter on off  chopped to point  </p>]'
p800
ssS'42.6'
p801
(dp802
g3
S'Ronchi'
p803
sg5
S'1 run'
p804
sg7
S' Ashwin'
p805
sg9
S'\nfinds a single with a hit down to deep square leg  </p>]'
p806
ssS'2.40'
p807
(dp808
g3
S'Guptill'
p809
sg5
g6
sg7
S' Kumar'
p810
sg9
S'\nonce again fires one down the leg side as Bhuvi has been largely inconsistent so far. Was looking to get this to nip back in to the right-hander  </p>]'
p811
ssS'25.3'
p812
(dp813
g3
S'Williamson'
p814
sg5
S'1 run'
p815
sg7
S' Ashwin'
p816
sg9
S'\nturned away towards midwicket by Williamson for one  </p>]'
p817
ssS'25.2'
p818
(dp819
g3
S'Taylor'
p820
sg5
S'1 run'
p821
sg7
S' Ashwin'
p822
sg9
S'\ndrilled straight to the man at long-off  </p>]'
p823
ssS'25.5'
p824
(dp825
g3
S'Taylor'
p826
sg5
S'2 runs'
p827
sg7
S' Ashwin'
p828
sg9
S'\nopens the face to this one pitching well outside off as this is held to just two runs  </p>]'
p829
ssS'25.4'
p830
(dp831
g3
S'Taylor'
p832
sg5
S'no run'
p833
sg7
S' Ashwin'
p834
sg9
S'\nheading down the pads as Taylor looks to guide this past backward square leg  </p>]'
p835
ssS'25.6'
p836
(dp837
g3
S'Taylor'
p838
sg5
S'no run'
p839
sg7
S' Ashwin'
p840
sg9
S'\nturned away to the leg side to end another successful over for India  </p>]'
p841
ssS'21.2'
p842
(dp843
g3
S'Taylor'
p844
sg5
S'1 run'
p845
sg7
S' Ashwin'
p846
sg9
S'\nheading down the pads as this is clipped to square leg for one  </p>]'
p847
ssS'28.6'
p848
(dp849
g3
S'Williamson'
p850
sg5
S'1 run'
p851
sg7
S' Kohli'
p852
sg9
S'\ncracked to sweeper cover off the back foot  </p>]'
p853
ssS'23.6'
p854
(dp855
g3
S'Williamson'
p856
sg5
S'1 run'
p857
sg7
S' Ashwin'
p858
sg9
S'\nhelped down once more to long-on  which means he will retain strike for the next over  </p>]'
p859
ssS'23.5'
p860
(dp861
g3
S'Taylor'
p862
sg5
S'1 run'
p863
sg7
S' Ashwin'
p864
sg9
S'\neased down to long-on for a single  </p>]'
p865
ssS'23.4'
p866
(dp867
g3
S'Taylor'
p868
sg5
S'no run'
p869
sg7
S' Ashwin'
p870
sg9
S'\nfails to get away this delivery to the leg side  </p>]'
p871
ssS'23.3'
p872
(dp873
g3
S'Taylor'
p874
sg5
S'2 runs'
p875
sg7
S' Ashwin'
p876
sg9
S'\nable to get this very fine outside off as this is finessed towards the third man boundary  but is reined in by the fielders  </p>]'
p877
ssS'23.2'
p878
(dp879
g3
S'Taylor'
p880
sg5
S'no run'
p881
sg7
S' Ashwin'
p882
sg9
S'\ndriven straight back to Ashwin by Taylor  </p>]'
p883
ssS'23.1'
p884
(dp885
g3
S'Taylor'
p886
sg5
S'no run'
p887
sg7
S' Ashwin'
p888
sg9
S'\ndefends this one solidly to the off side  </p>]'
p889
ssS'32.1'
p890
(dp891
g3
S'Taylor'
p892
sg5
S'1 run'
p893
sg7
S' Jadeja'
p894
sg9
S'\ndriven past a diving short cover point to bring up his <b>25th ODI fifty</b>. Well played Rossy  New Zealand will want you to keep going  </p>]'
p895
ssS'32.3'
p896
(dp897
g3
S'Williamson'
p898
sg5
S'no run'
p899
sg7
S' Jadeja'
p900
sg9
S'\nthis time cut away a bit more square  </p>]'
p901
ssS'32.2'
p902
(dp903
g3
S'Williamson'
p904
sg5
g38
sg7
S' Jadeja'
p905
sg9
S'\nafforded width outside off and is punished with a late cut through the gap fora boundary  </p>]'
p906
ssS'32.5'
p907
(dp908
g3
S'Taylor'
p909
sg5
S'1 run'
p910
sg7
S' Jadeja'
p911
sg9
S'\nruns this one down to short third man for a single  </p>]'
p912
ssS'32.4'
p913
(dp914
g3
S'Williamson'
p915
sg5
S'1 run'
p916
sg7
S' Jadeja'
p917
sg9
S'\neased down to long-on for an easy single  </p>]'
p918
ssS'27.6'
p919
(dp920
g3
S'Taylor'
p921
sg5
S'1 run'
p922
sg7
S' Ashwin'
p923
sg9
S"\nnudged to the left of square leg and that's another single  </p>]"
p924
ssS'33.4'
p925
(dp926
g3
S'McCullum'
p927
sg5
S'no run'
p928
sg7
S' Ashwin'
p929
sg9
S'\non the front foot to this flighted one from Ashwin  </p>]'
p930
ssS'19.4'
p931
(dp932
g3
S'Taylor'
p933
sg5
S'1 run'
p934
sg7
S' Ashwin'
p935
sg9
S'\nlength ball driven down to long-off for a single  </p>]'
p936
ssS'33.6'
p937
(dp938
g3
S'Taylor'
p939
sg5
S'no run'
p940
sg7
S' Ashwin'
p941
sg9
S'\nends the over by playing this one back to Ashwin  </p>]'
p942
ssS'33.1'
p943
(dp944
g3
S'Taylor'
p945
sg5
S'no run'
p946
sg7
S' Ashwin'
p947
sg9
S'\ngets forward to this flatter one from Ashwin  </p>]'
p948
ssS'33.2'
p949
(dp950
g3
S'Taylor'
p951
sg5
S'1 run'
p952
sg7
S' Ashwin'
p953
sg9
S'\nonce again driven back to the bowler  beating his outstretched left hand  </p>]'
p954
ssS'19.5'
p955
(dp956
g3
S'Williamson'
p957
sg5
S'no run'
p958
sg7
S' Ashwin'
p959
sg9
S'\ndefended solidly by Williamson to the off side  </p>]'
p960
ssS'19.6'
p961
(dp962
g3
S'Williamson'
p963
sg5
S'no run'
p964
sg7
S' Ashwin'
p965
sg9
S'\ndefended straight to the man at short cover point to bring the over to an end  </p>]'
p966
ssS'29.4'
p967
(dp968
g3
S'Williamson'
p969
sg5
S'1 run'
p970
sg7
S' Ashwin'
p971
sg9
S'\neased to deep extra cover  two was the call and two it will be eventually  </p>]'
p972
ssS'39.6'
p973
(dp974
g3
S'McCullum'
p975
sg5
S'1 run'
p976
sg7
S' I Sharma'
p977
sg9
S'\ngets forward to play this length delivery with soft hands to the off side  and is able to pinch a single in the process  </p>]'
p978
ssS'39.4'
p979
(dp980
g3
S'McCullum'
p981
sg5
g38
sg7
S' I Sharma'
p982
sg9
S'\nIshant struggling to land a good line as McCullum sacheys to the leg side to loft this low full toss heading down the leg side over long-off for a boundary  </p>]'
p983
ssS'39.5'
p984
(dp985
g3
S'McCullum'
p986
sg5
g38
sg7
S' I Sharma'
p987
sg9
S'\nthis time straying on the pads as McCullum works this past backward square  who put in a dive in vain  as this one travels to the fine leg rope  </p>]'
p988
ssS'39.2'
p989
(dp990
g3
S'Anderson'
p991
sg5
g233
sg7
S' I Sharma'
p992
sg9
S'\nwhere did that come from? Anderson just sent an Ishant back of a length delivery way over the square leg boundary for a huge six. This one was struck so sweetly that it just seemed to climb higher and higher in the air  before landing on the roof. Monstrous hit from Anderson. Ishant is thinking "Oh no  not again"  </p>]'
p993
ssS'39.3'
p994
(dp995
g3
S'Anderson'
p996
sg5
S'1 run'
p997
sg7
S' I Sharma'
p998
sg9
S'\nthis time pitches it up further as this one is worked away behind square on the leg side  </p>]'
p999
ssS'19.1'
p1000
(dp1001
g3
S'Taylor'
p1002
sg5
S'1 run'
p1003
sg7
S' Ashwin'
p1004
sg9
S'\nleg side delivery which is helped to fine leg by Taylor  </p>]'
p1005
ssS'8.1'
p1006
(dp1007
g3
S'Williamson'
p1008
sg5
S'no run'
p1009
sg7
S' Kumar'
p1010
sg9
S'\ncontent to leave this back of a length delivery outside off to the keeper  </p>]'
p1011
ssS'21.4'
p1012
(dp1013
g3
S'Williamson'
p1014
sg5
S'1 run'
p1015
sg7
S' Ashwin'
p1016
sg9
S'\neased off the pads down to midwicket for one  </p>]'
p1017
ssS'8.3'
p1018
(dp1019
g3
S'Williamson'
p1020
sg5
S'1 run'
p1021
sg7
S' Kumar'
p1022
sg9
S'\nonce again angling in  this time of a back of a length  as Williamson steals a run to the leg side  </p>]'
p1023
ssS'8.2'
p1024
(dp1025
g3
S'Williamson'
p1026
sg5
S'no run'
p1027
sg7
S' Kumar'
p1028
sg9
S'\nshaping in from a fuller length just outside off as Williamson defends on the front foot  </p>]'
p1029
ssS'8.5'
p1030
(dp1031
g3
S'Williamson'
p1032
sg5
S'no run'
p1033
sg7
S' Kumar'
p1034
sg9
S'\nfuller one just outside off which is left for the keeper to collect  </p>]'
p1035
ssS'8.4'
p1036
(dp1037
g3
S'Taylor'
p1038
sg5
S'1 run'
p1039
sg7
S' Kumar'
p1040
sg9
S'\nangling down the pads as Taylor gets away with a clip behind to deep fine leg  </p>]'
p1041
ssS'21.3'
p1042
(dp1043
g3
S'Williamson'
p1044
sg5
S'no run'
p1045
sg7
S' Ashwin'
p1046
sg9
S'\ndisplays his front foot defence with the straightest of bats  </p>]'
p1047
ssS'8.6'
p1048
(dp1049
g3
S'Williamson'
p1050
sg5
S'no run'
p1051
sg7
S' Kumar'
p1052
sg9
S'\nplays this one with the most minimal of footwork outside off behind square  but backward point is equal to the task  </p>]'
p1053
ssS'19.3'
p1054
(dp1055
g3
S'Williamson'
p1056
sg5
S'1 run'
p1057
sg7
S' Ashwin'
p1058
sg9
S'\npunches this off the back foot to sweeper cover for one  </p>]'
p1059
ssS'44.4'
p1060
(dp1061
g3
S'Ronchi'
p1062
sg5
g233
sg7
S' Jadeja'
p1063
sg9
S'\nthis time there is no doubt about this clearing the ropes as Ronchi just gets down on one knee before depositing Jadeja high into the midwicket stand  </p>]'
p1064
ssS'42.5'
p1065
(dp1066
g3
S'Ronchi'
p1067
sg5
S'no run'
p1068
sg7
S' Ashwin'
p1069
sg9
S'\nlooks to cut away this shortish one from Ashwin  but ends up hitting it back towards Dhoni on the bounce  </p>]'
p1070
ssS'30.3'
p1071
(dp1072
g3
S'Williamson'
p1073
sg5
S'1 run'
p1074
sg7
S' Jadeja'
p1075
sg9
S'\nfloated outside off  driven to sweeper cover  </p>]'
p1076
ssS'44.5'
p1077
(dp1078
g3
S'Ronchi'
p1079
sg5
g38
sg7
S' Jadeja'
p1080
sg9
S'\nthis time flatter from Jadeja as Ronchi hammers him back into the same region  but this one not quite travelling over the ropes  </p>]'
p1081
ssS'9.4'
p1082
(dp1083
g3
S'Williamson'
p1084
sg5
S'no run'
p1085
sg7
S' I Sharma'
p1086
sg9
S'\nWilliamson on the front foot straight away to this fuller one from Ishant  </p>]'
p1087
ssS'9.5'
p1088
(dp1089
g3
S'Williamson'
p1090
sg5
S'no run'
p1091
sg7
S' I Sharma'
p1092
sg9
S'\nonce again defended on the front foot by Taylor  </p>]'
p1093
ssS'9.6'
p1094
(dp1095
g3
S'Williamson'
p1096
sg5
S'no run'
p1097
sg7
S' I Sharma'
p1098
sg9
S'\nlength outside off which nibbles away as Williamson shoulders arms  </p>]'
p1099
ssS'9.1'
p1100
(dp1101
g3
S'Taylor'
p1102
sg5
S'no run'
p1103
sg7
S' I Sharma'
p1104
sg9
S'\nbegins with a shortish length outside off as Taylor looks to cut it away  </p>]'
p1105
ssS'9.2'
p1106
(dp1107
g3
S'Taylor'
p1108
sg5
S'2 runs'
p1109
sg7
S' I Sharma'
p1110
sg9
S'\nguilty of going down the pads as Taylor just eases this down to deep square leg  </p>]'
p1111
ssS'9.3'
p1112
(dp1113
g3
S'Taylor'
p1114
sg5
S'1 run'
p1115
sg7
S' I Sharma'
p1116
sg9
S'\ncuts this back of a length delivery down to the man at deep point  </p>]'
p1117
ssS'25.1'
p1118
(dp1119
g3
S'Williamson'
p1120
sg5
S'1 run'
p1121
sg7
S' Ashwin'
p1122
sg9
S'\ndriven down to long-on with another easy single. Also brings up the <b>fifty</b> for Williamson  who has been terrific in setting up the foundation  </p>]'
p1123
ssS'34.4'
p1124
(dp1125
g3
S'McCullum'
p1126
sg5
S'no run'
p1127
sg7
S' Kumar'
p1128
sg9
S'\npushed off the back foot straight to point  </p>]'
p1129
ssS'41.6'
p1130
(dp1131
g3
S'Ronchi'
p1132
sg5
S'no run'
p1133
sg7
S' Kumar'
p1134
sg9
S'\nonce again defended by Ronchi to end a successful over for India  </p>]'
p1135
ssS'41.5'
p1136
(dp1137
g3
S'Ronchi'
p1138
sg5
S'no run'
p1139
sg7
S' Kumar'
p1140
sg9
S'\nback of a length and defended by Ronchi to the off side  </p>]'
p1141
ssS'41.4'
p1142
(dp1143
g3
S'McCullum'
p1144
sg5
g474
sg7
S' Kumar'
p1145
sg9
S"\nDhoni takes a blinder behind the stumps as he is able to hold on to an edge off McCullum's bat while standing up to the stumps to deter the batsman from going down the pitch. Excellent work by the captain as Bhuvneshwar celebrates some success finally  </p>]"
p1146
ssS'41.3'
p1147
(dp1148
g3
S'McCullum'
p1149
sg5
S'no run'
p1150
sg7
S' Kumar'
p1151
sg9
S'\nadvances down the track a bit as this is defended back to the bowler  </p>]'
p1152
ssS'41.2'
p1153
(dp1154
g3
S'McCullum'
p1155
sg5
S'no run'
p1156
sg7
S' Kumar'
p1157
sg9
S'\ndefends this one on the front foot towards backward point  </p>]'
p1158
ssS'30.1'
p1159
(dp1160
g3
S'Taylor'
p1161
sg5
S'2 runs'
p1162
sg7
S' Jadeja'
p1163
sg9
S'\na risk-free single to deep point  </p>]'
p1164
ssS'30.6'
p1165
(dp1166
g3
S'Williamson'
p1167
sg5
S'1 run  </p>]'
p1168
sg7
S' Jadeja'
p1169
sg9
S''
p1170
ssS'35.30'
p1171
(dp1172
g3
S'Taylor'
p1173
sg5
g6
sg7
S' I Sharma'
p1174
sg9
S'\nspears this one down the pads as the umpire signals a wide  </p>]'
p1175
ssS'44.2'
p1176
(dp1177
g3
S'Ronchi'
p1178
sg5
S'1 run'
p1179
sg7
S' Jadeja'
p1180
sg9
S'\nslower one outside off which is carved to the fielder at sweeper cover  </p>]'
p1181
ssS'43.5'
p1182
(dp1183
g3
S'Anderson'
p1184
sg5
g38
sg7
S' Mohammed Shami'
p1185
sg9
S'\nfires in a bouncer going down the leg side as Anderson gets a whiff on it which carries well over the keeper to the fine leg boundary. Looks like it may have been a top-edge there  </p>]'
p1186
ssS'28.1'
p1187
(dp1188
g3
S'Taylor'
p1189
sg5
S'1 run'
p1190
sg7
S' Kohli'
p1191
sg9
S'\nswinging in from outside off as this is eased to the fielder at mid-off  </p>]'
p1192
ssS'28.2'
p1193
(dp1194
g3
S'Williamson'
p1195
sg5
S'no run'
p1196
sg7
S' Kohli'
p1197
sg9
S'\ntries to squirt this away past backward point  </p>]'
p1198
ssS'28.3'
p1199
(dp1200
g3
S'Williamson'
p1201
sg5
S'no run'
p1202
sg7
S' Kohli'
p1203
sg9
S'\nclipped off the pads for a single  </p>]'
p1204
ssS'28.4'
p1205
(dp1206
g3
S'Williamson'
p1207
sg5
S'1 run'
p1208
sg7
S' Kohli'
p1209
sg9
S'\nanother single  this time down to deep extra-cover  </p>]'
p1210
ssS'28.5'
p1211
(dp1212
g3
S'Taylor'
p1213
sg5
S'1 run'
p1214
sg7
S' Kohli'
p1215
sg9
S'\npushes this one down to long-on for yet another easy.single  </p>]'
p1216
ssS'7.3'
p1217
(dp1218
g3
S'Guptill'
p1219
sg5
S'no run'
p1220
sg7
S' Mohammed Shami'
p1221
sg9
S'\nlooks to work away this leg side delivery off a back of a length  </p>]'
p1222
ssS'15.5'
p1223
(dp1224
g3
S'Williamson'
p1225
sg5
S'3 runs'
p1226
sg7
S' Jadeja'
p1227
sg9
S'\nonce again decides to employ the lofted shot through midwicket as this time Kumar is able to prevent it from hitting the rope  and fires in a throw which has the NZ duo running hard to make their respective ends. Jadeja fires a throw to the other end  but the dive from Taylor was successful  </p>]'
p1228
ssS'19.2'
p1229
(dp1230
g3
S'Williamson'
p1231
sg5
g38
sg7
S' Ashwin'
p1232
sg9
S'\nshimmies down before lofting Ashwin gracefully over long-off for a wonderfully timed six. Just pure class and elegance from Williamson  </p>]'
p1233
ssS'38.2'
p1234
(dp1235
g3
S'Anderson'
p1236
sg5
S'1 run'
p1237
sg7
S' Mohammed Shami'
p1238
sg9
S'\non the pads as this is helped off the hips by Anderson towards square leg  </p>]'
p1239
ssS'31.6'
p1240
(dp1241
g3
S'Taylor'
p1242
sg5
S'1 run'
p1243
sg7
S' Kohli'
p1244
sg9
S'\njabbed to the off side by Taylor towards the cover region  </p>]'
p1245
ssS'38.4'
p1246
(dp1247
g3
S'McCullum'
p1248
sg5
S'no run'
p1249
sg7
S' Mohammed Shami'
p1250
sg9
S'\ntests him with a bouncer which rises appreciably over McCullum  who looked to wallop this out of Napier  </p>]'
p1251
ssS'31.4'
p1252
(dp1253
g3
S'Williamson'
p1254
sg5
S'no run'
p1255
sg7
S' Kohli'
p1256
sg9
S'\nfails to get this one going down the pads past short backward square  </p>]'
p1257
ssS'31.5'
p1258
(dp1259
g3
S'Williamson'
p1260
sg5
S'1 run'
p1261
sg7
S' Kohli'
p1262
sg9
S'\nslaps this one on one knee down to long-on for a single  </p>]'
p1263
ssS'31.2'
p1264
(dp1265
g3
S'Williamson'
p1266
sg5
S'1 run'
p1267
sg7
S' Kohli'
p1268
sg9
S'\nslaps this fuller one away to the leg side which is hit at quite a rate of knots  </p>]'
p1269
ssS'31.3'
p1270
(dp1271
g3
S'Taylor'
p1272
sg5
S'1 run'
p1273
sg7
S' Kohli'
p1274
sg9
S'\ndrilled down to long-on to the fielder  </p>]'
p1275
ssS'31.1'
p1276
(dp1277
g3
S'Williamson'
p1278
sg5
S'no run'
p1279
sg7
S' Kohli'
p1280
sg9
S'\ngets forward to this one pitched outside off  </p>]'
p1281
ssS'18.1'
p1282
(dp1283
g3
S'Taylor'
p1284
sg5
S'1 run'
p1285
sg7
S' Kohli'
p1286
sg9
S'\nfires one wide outside off as this is driven by Williamson towards the covers  </p>]'
p1287
ssS'18.3'
p1288
(dp1289
g3
S'Taylor'
p1290
sg5
S'1 run'
p1291
sg7
S' Kohli'
p1292
sg9
S'\npushed to the left of the bowler down to the man at long-off for one  </p>]'
p1293
ssS'18.2'
p1294
(dp1295
g3
S'Williamson'
p1296
sg5
S'1 run'
p1297
sg7
S' Kohli'
p1298
sg9
S'\nfuller one which is drilled straight to the man at long-off  </p>]'
p1299
ssS'18.5'
p1300
(dp1301
g3
S'Williamson'
p1302
sg5
S'1 run'
p1303
sg7
S' Kohli'
p1304
sg9
S'\nshortish and just outside off  Williamson plays a flat batted pull to long on. That notches up the 50 of the partnership between Taylor and Williamson  </p>]'
p1305
ssS'18.4'
p1306
(dp1307
g3
S'Williamson'
p1308
sg5
S'no run'
p1309
sg7
S' Kohli'
p1310
sg9
S'\nshortish length outside off which is cut away straight to backward point  </p>]'
p1311
ssS'18.6'
p1312
(dp1313
g3
S'Taylor'
p1314
sg5
S'1 run'
p1315
sg7
S' Kohli'
p1316
sg9
S'\nlength ball homing in on middle  Taylor milks it to mid wicket to retain strike  </p>]'
p1317
ssS'1.4'
p1318
(dp1319
g3
S'Ryder'
p1320
sg5
g38
sg7
S' Mohammed Shami'
p1321
sg9
S'\nthis time decides to slant the ball across Ryder  who sees this early as he slaps this away through point off the back foot to find the square boundary  </p>]'
p1322
ssS'1.5'
p1323
(dp1324
g3
S'Ryder'
p1325
sg5
S'no run'
p1326
sg7
S' Mohammed Shami'
p1327
sg9
S'\nmuch better line and length as this one is pitched just around middle and off  with that little hint of away movement after the tentative forward prod from Ryder  </p>]'
p1328
ssS'1.6'
p1329
(dp1330
g3
S'Ryder'
p1331
sg5
S'no run'
p1332
sg7
S' Mohammed Shami'
p1333
sg9
S'\nsimilar line to the delivery before as Shami gets this to rise off a shortish length to the keeper  </p>]'
p1334
ssS'1.1'
p1335
(dp1336
g3
S'Guptill'
p1337
sg5
S'1 run'
p1338
sg7
S' Mohammed Shami'
p1339
sg9
S'\nprods forward slightly on the back foot to play this one to the leg side for a quick single  </p>]'
p1340
ssS'1.2'
p1341
(dp1342
g3
S'Ryder'
p1343
sg5
S'no run'
p1344
sg7
S' Mohammed Shami'
p1345
sg9
S'\npitches this a bit further up on the leg stump as this is played away to the leg side  </p>]'
p1346
ssS'1.3'
p1347
(dp1348
g3
S'Ryder'
p1349
sg5
g38
sg7
S' Mohammed Shami'
p1350
sg9
S"\nShami has not got his lines quite right as this leg side delivery is helped down to the man at deep fine leg  but beats the fielder to the boundary  despite the fielder's dive  </p>]"
p1351
ssS'0.1'
p1352
(dp1353
g3
S'Guptill'
p1354
sg5
S'1 run'
p1355
sg7
S' Kumar'
p1356
sg9
S'\nand Guptill is underway as this one moves a bit to the leg side off a back of a length  as Guptill looks to work this away leg side for a single  but ends up being called a leg-bye by the umpire  </p>]'
p1357
ssS'30.2'
p1358
(dp1359
g3
S'Taylor'
p1360
sg5
S'1 run'
p1361
sg7
S' Jadeja'
p1362
sg9
S'\nsoftly dropped in front of cover and a quick single taken  </p>]'
p1363
ssS'0.3'
p1364
(dp1365
g3
S'Ryder'
p1366
sg5
S'no run'
p1367
sg7
S' Kumar'
p1368
sg9
S'\nonce again behind the line as this is played just to the left of the bowler  </p>]'
p1369
ssS'0.2'
p1370
(dp1371
g3
S'Ryder'
p1372
sg5
S'no run'
p1373
sg7
S' Kumar'
p1374
sg9
S'\nRyder gets solidly behind the line of this back of a length offering from Bhuvi  </p>]'
p1375
ssS'0.5'
p1376
(dp1377
g3
S'Ryder'
p1378
sg5
S'no run'
p1379
sg7
S' Kumar'
p1380
sg9
S'\nRyder fixed at the crease as he pushes this shortish length on middle and off to the off side  </p>]'
p1381
ssS'0.4'
p1382
(dp1383
g3
S'Ryder'
p1384
sg5
S'no run'
p1385
sg7
S' Kumar'
p1386
sg9
S'\ngets this one to swing in from a shortish length as Ryder fends this away to the leg side  </p>]'
p1387
ssS'30.5'
p1388
(dp1389
g3
S'Taylor'
p1390
sg5
S'1 run'
p1391
sg7
S' Jadeja'
p1392
sg9
S'\ndriven past a diving cover  down to long-off  </p>]'
p1393
ssS'0.6'
p1394
(dp1395
g3
S'Ryder'
p1396
sg5
g233
sg7
S' Kumar'
p1397
sg9
S"\nand it doesn't take long for Ryder to tee off as Bhuvi has been a tad predictable with this line and length. Ryder is able to flick this with that beautiful pick-up shot of his over square leg for the first six of the morning  </p>]"
p1398
ssS'38.3'
p1399
(dp1400
g3
S'McCullum'
p1401
sg5
S'no run'
p1402
sg7
S' Mohammed Shami'
p1403
sg9
S'\nfuller length just outside off as Brendon tries to force this away to the off side  </p>]'
p1404
ssS'36.5'
p1405
(dp1406
g3
S'McCullum'
p1407
sg5
S'1 run'
p1408
sg7
S' Mohammed Shami'
p1409
sg9
S'\nback of a length which is played with soft hands to the off side for another tight single  </p>]'
p1410
ssS'38.1'
p1411
(dp1412
g3
S'Anderson'
p1413
sg5
g38
sg7
S' Mohammed Shami'
p1414
sg9
S'\nlength on middle which is sent up and over by Anderson to the long-off boundary with the cleanest of strikes  </p>]'
p1415
ssS'38.6'
p1416
(dp1417
g3
S'Anderson'
p1418
sg5
S'no run'
p1419
sg7
S' Mohammed Shami'
p1420
sg9
S'\npushed to the fielder at short cover point to end the over  </p>]'
p1421
ssS'38.5'
p1422
(dp1423
g3
S'McCullum'
p1424
sg5
S'3 runs'
p1425
sg7
S' Mohammed Shami'
p1426
sg9
S"\nable to slap away this back of a length ball through extra-cover  but doesn't time it quite right  but still manages to pick up three valuable runs  </p>]"
p1427
ssS'36.4'
p1428
(dp1429
g3
S'Anderson'
p1430
sg5
S'1 run'
p1431
sg7
S' Mohammed Shami'
p1432
sg9
S'\ndefends this one to the leg side and takes off for a quick single  </p>]'
p1433
ssS'13.6'
p1434
(dp1435
g3
S'Williamson'
p1436
sg5
S'no run'
p1437
sg7
S' Jadeja'
p1438
sg9
S"\nuses his feet but can't quite get to the pitch of it as this one ends up being played to the leg side  </p>]"
p1439
ssS'13.4'
p1440
(dp1441
g3
S'Taylor'
p1442
sg5
S'1 run'
p1443
sg7
S' Jadeja'
p1444
sg9
S'\ndriven towards the off side by Taylor for a single  </p>]'
p1445
ssS'13.5'
p1446
(dp1447
g3
S'Williamson'
p1448
sg5
S'no run'
p1449
sg7
S' Jadeja'
p1450
sg9
S'\npushes this back of a length delivery to the right of Jadeja  who is quick on it  </p>]'
p1451
ssS'13.2'
p1452
(dp1453
g3
S'Williamson'
p1454
sg5
S'no run'
p1455
sg7
S' Jadeja'
p1456
sg9
S'\nthis time flighted on a similar line as this is played back to the bowler  </p>]'
p1457
ssS'13.3'
p1458
(dp1459
g3
S'Williamson'
p1460
sg5
S'1 run'
p1461
sg7
S' Jadeja'
p1462
sg9
S'\nWilliamson down the track to drive this on the up to extra-cover  </p>]'
p1463
ssS'13.1'
p1464
(dp1465
g3
S'Williamson'
p1466
sg5
S'no run'
p1467
sg7
S' Jadeja'
p1468
sg9
S'\nbegins with a flatter delivery which is driven straight back to the bowler  who dives to his right to recover it  </p>]'
p1469
ssS'4.5'
p1470
(dp1471
g3
S'Guptill'
p1472
sg5
S'no run'
p1473
sg7
S' Kumar'
p1474
sg9
S'\nnice carry to the keeper as this one shapes away outside off  </p>]'
p1475
ssS'4.4'
p1476
(dp1477
g3
S'Guptill'
p1478
sg5
S'no run'
p1479
sg7
S' Kumar'
p1480
sg9
S'\nshuffles over a few steps to this length delivery on the pads as he looks to guide this through the leg side  but finds the fielder  </p>]'
p1481
ssS'5.2'
p1482
(dp1483
g3
S'Williamson'
p1484
sg5
S'no run'
p1485
sg7
S' Mohammed Shami'
p1486
sg9
S'\nbowls a back of a length delivery which rises appreciably outside off as Williamson shoulders arms  </p>]'
p1487
ssS'4.6'
p1488
(dp1489
g3
S'Guptill'
p1490
sg5
g38
sg7
S' Kumar'
p1491
sg9
S'\nthe line a tad wider outside off as Guptill is afforded room to get this away through point for his first boundary  </p>]'
p1492
ssS'4.1'
p1493
(dp1494
g3
S'Guptill'
p1495
sg5
S'no run'
p1496
sg7
S' Kumar'
p1497
sg9
S'\ndefends this back of a length delivery to the off side  </p>]'
p1498
ssS'5.5'
p1499
(dp1500
g3
S'Williamson'
p1501
sg5
S'1 run'
p1502
sg7
S' Mohammed Shami'
p1503
sg9
S'\nshortish length on middle as Williamson employs the pull shot  but is late on it as this one is bottom-edged onto his stomach  deflecting away towards third man. Ends up being ruled as runs  </p>]'
p1504
ssS'4.3'
p1505
(dp1506
g3
S'Guptill'
p1507
sg5
S'no run'
p1508
sg7
S' Kumar'
p1509
sg9
S'\ngets this one to shape away from a length outside off  </p>]'
p1510
ssS'4.2'
p1511
(dp1512
g3
S'Guptill'
p1513
sg5
S'no run'
p1514
sg7
S' Kumar'
p1515
sg9
S'\npitched up and nibbling away late outside off  Guptill leaves it well alone  </p>]'
p1516
ssS'11.4'
p1517
(dp1518
g3
S'Williamson'
p1519
sg5
S'no run'
p1520
sg7
S' I Sharma'
p1521
sg9
S'\nWilliamson not particularly in a hurry as he thrusts forward to defend this offering from Ishant  </p>]'
p1522
ssS'11.5'
p1523
(dp1524
g3
S'Williamson'
p1525
sg5
S'2 runs'
p1526
sg7
S' I Sharma'
p1527
sg9
S'\npunches this length delivery off the back foot towards deep extra-cover. Williamson was up high on his toes as he caressed this one through the gap  </p>]'
p1528
ssS'11.6'
p1529
(dp1530
g3
S'Williamson'
p1531
sg5
S'2 runs'
p1532
sg7
S' I Sharma'
p1533
sg9
S'\nplayed away towards deep extra-cover to bring the over to an end  </p>]'
p1534
ssS'11.1'
p1535
(dp1536
g3
S'Williamson'
p1537
sg5
S'no run'
p1538
sg7
S' I Sharma'
p1539
sg9
S'\nIshant pitches this one just outside off as this is drilled straight to silly mid-off  </p>]'
p1540
ssS'11.2'
p1541
(dp1542
g3
S'Williamson'
p1543
sg5
S'no run'
p1544
sg7
S' I Sharma'
p1545
sg9
S'\nback of a length and allowed through to the keeper  </p>]'
p1546
ssS'11.3'
p1547
(dp1548
g3
S'Williamson'
p1549
sg5
S'no run'
p1550
sg7
S' I Sharma'
p1551
sg9
S'\ntries to get this shortish length away through the off side  but finds the fielder at cover  </p>]'
p1552
ssS'17.2'
p1553
(dp1554
g3
S'Taylor'
p1555
sg5
S'no run'
p1556
sg7
S' Ashwin'
p1557
sg9
S'\ndefended back to the bowler by Taylor  </p>]'
p1558
ssS'17.3'
p1559
(dp1560
g3
S'Taylor'
p1561
sg5
S'no run'
p1562
sg7
S' Ashwin'
p1563
sg9
S'\nslightly slower delivery which is defended cautiously  </p>]'
p1564
ssS'17.1'
p1565
(dp1566
g3
S'Williamson'
p1567
sg5
S'1 run'
p1568
sg7
S' Ashwin'
p1569
sg9
S'\ncharges Ashwin straight away as this is played just to the right of him  </p>]'
p1570
ssS'17.6'
p1571
(dp1572
g3
S'Williamson'
p1573
sg5
S'no run'
p1574
sg7
S' Ashwin'
p1575
sg9
S"\nagain down the track to this drifted delivery from Ashwin  but can't get it past Ashwin  </p>]"
p1576
ssS'36.3'
p1577
(dp1578
g3
S'Anderson'
p1579
sg5
S'no run'
p1580
sg7
S' Mohammed Shami'
p1581
sg9
S'\nshortish length slanting across Corey as he lets this through to the keeper  </p>]'
p1582
ssS'17.4'
p1583
(dp1584
g3
S'Taylor'
p1585
sg5
S'1 run'
p1586
sg7
S' Ashwin'
p1587
sg9
S'\nthis time eases this flatter one down to long-on for one  </p>]'
p1588
ssS'17.5'
p1589
(dp1590
g3
S'Williamson'
p1591
sg5
S'no run'
p1592
sg7
S' Ashwin'
p1593
sg9
S'\nplayed off the back foot towards point by Williamson  </p>]'
p1594
ssS'47.1'
p1595
(dp1596
g3
S'Ronchi'
p1597
sg5
S'1 run'
p1598
sg7
S' I Sharma'
p1599
sg9
S'\ndelivers this on middle at a fuller length as this is drilled down to long-on  </p>]'
p1600
ssS'47.3'
p1601
(dp1602
g3
S'Anderson'
p1603
sg5
g233
sg7
S' I Sharma'
p1604
sg9
S'\nAnderson is in a belligerent mood as he just heaves this fuller one from Ishant over midwicket for the fourth six of his innings. IPL contract beckoning my boy!  </p>]'
p1605
ssS'36.2'
p1606
(dp1607
g3
S'Taylor'
p1608
sg5
g474
sg7
S' Mohammed Shami'
p1609
sg9
S'\nand Shami strikes straight away as he gets Taylor to play a tired shot  having a go at this one wide outside off which catches the outside edge on the way to Dhoni  who does well to snaffle it. Ends a fighting knock from Taylor  </p>]'
p1610
ssS'47.5'
p1611
(dp1612
g3
S'Ronchi'
p1613
sg5
g474
sg7
S' I Sharma'
p1614
sg9
S"\nback of a length outside off which has Ronchi playing late behind him  but I don't think he saw the fielder at backward point  as Kumar peddles back before taking a catch to his right to hold onto it. Ends a good supporting act from Ronchi  who came to the party at just the right time for his side  </p>]"
p1615
ssS'47.2'
p1616
(dp1617
g3
S'Anderson'
p1618
sg5
S'2 runs'
p1619
sg7
S' I Sharma'
p1620
sg9
S'\nfull and just outside off as Anderson spoons this over extra-cover for a couple  </p>]'
p1621
ssS'47.6'
p1622
(dp1623
g3
S'McCullum'
p1624
sg5
S'2 runs'
p1625
sg7
S' I Sharma'
p1626
sg9
S"\nNathan far too early into his shot as he ends up spooning this high over mid-on  but with no fielder there it ends up falling safely  but the action isn't over there as a throw from the deep while the pair go for two almost costs them a wicket as the stumps are thrown down. Replays confirm  however  that the batsman had made his ground successfully  </p>]"
p1627
ssS'46.4'
p1628
(dp1629
g3
S'Anderson'
p1630
sg5
S'1 run'
p1631
sg7
S' Mohammed Shami'
p1632
sg9
S'\njust drills this almost yorker-length ball straight back past the bowler  with the boundary riders coming into play  </p>]'
p1633
ssS'46.5'
p1634
(dp1635
g3
S'Ronchi'
p1636
sg5
S'1 run'
p1637
sg7
S' Mohammed Shami'
p1638
sg9
S'\nlow full toss just outside off which is directed towards the leg side instead by the batsman  </p>]'
p1639
ssS'46.6'
p1640
(dp1641
g3
S'Anderson'
p1642
sg5
S'no run'
p1643
sg7
S' Mohammed Shami'
p1644
sg9
S'\nfuller one just outside off as Anderson has a swing and a miss  </p>]'
p1645
ssS'46.1'
p1646
(dp1647
g3
S'Anderson'
p1648
sg5
S'no run'
p1649
sg7
S' Mohammed Shami'
p1650
sg9
S'\npushes one across Anderson who fails to get a bat on it  thinking instead that it will go for a wide  but the umpire is unmoved  </p>]'
p1651
ssS'46.2'
p1652
(dp1653
g3
S'Anderson'
p1654
sg5
S'2 runs'
p1655
sg7
S' Mohammed Shami'
p1656
sg9
S'\nfull and wide outside off as Anderson times this beautifully towards extra-cover  with Kohli doing well to dive and stop it before the boundary  </p>]'
p1657
ssS'5.1'
p1658
(dp1659
g3
S'Williamson'
p1660
sg5
S'no run'
p1661
sg7
S' Mohammed Shami'
p1662
sg9
S"\nplays this back of a length delivery off his hips  but can't find the single  </p>]"
p1663
ssS'5.3'
p1664
(dp1665
g3
S'Williamson'
p1666
sg5
S'no run'
p1667
sg7
S' Mohammed Shami'
p1668
sg9
S'\npitches this a bit further up as Williamson can not be teased into offering a shot  </p>]'
p1669
ssS'41.1'
p1670
(dp1671
g3
S'Anderson'
p1672
sg5
S'1 run'
p1673
sg7
S' Kumar'
p1674
sg9
S'\nback of a length slanting across Anderson as he just slams this back to the fielder at long-off  </p>]'
p1675
ssS'29.5'
p1676
(dp1677
g3
S'Taylor'
p1678
sg5
S'2 runs  </p>]'
p1679
sg7
S' Ashwin'
p1680
sg9
g1170
ssS'5.4'
p1681
(dp1682
g3
S'Williamson'
p1683
sg5
S'no run'
p1684
sg7
S' Mohammed Shami'
p1685
sg9
S'\nShami pitching this again just outside off as Williamson shoulders arms  </p>]'
p1686
ssS'29.6'
p1687
(dp1688
g3
S'Taylor'
p1689
sg5
S'1 run'
p1690
sg7
S' Ashwin'
p1691
sg9
S'\nurned wide of the fielder at mid-on  Dhoni asks the fielder to take it easy  he is shouting to him  but the throw comes in finally  </p>]'
p1692
ssS'29.1'
p1693
(dp1694
g3
S'Williamson'
p1695
sg5
S'1 run'
p1696
sg7
S' Ashwin'
p1697
sg9
S'\ndown the track to drill this fuller one towards deep extra-cover  </p>]'
p1698
ssS'29.3'
p1699
(dp1700
g3
S'Williamson'
p1701
sg5
g38
sg7
S' Ashwin'
p1702
sg9
S'\nthe 100-run stand has come with an outstanding stroke. Williamson comes down the track and goes over cover  with an inside out stroke. Lovely execution and it looked so graceful  </p>]'
p1703
ssS'29.2'
p1704
(dp1705
g3
S'Taylor'
p1706
sg5
S'1 run'
p1707
sg7
S' Ashwin'
p1708
sg9
S'\nfull on off  driven along the carpet to long-off  </p>]'
p1709
ssS'15.1'
p1710
(dp1711
g3
S'Williamson'
p1712
sg5
g38
sg7
S' Jadeja'
p1713
sg9
S"\nnot going to let Jadeja off the hook as he shimmies down before lofting him between long-on and midwicket for a boundary. Kumar put in the dive at the boundary  but can't prevent it from hitting the rope  </p>]"
p1714
ssS'15.2'
p1715
(dp1716
g3
S'Williamson'
p1717
sg5
S'1 run'
p1718
sg7
S' Jadeja'
p1719
sg9
S'\nthis time worked away to the leg side off the back foot  </p>]'
p1720
ssS'15.3'
p1721
(dp1722
g3
S'Taylor'
p1723
sg5
S'1 run'
p1724
sg7
S' Jadeja'
p1725
sg9
S'\nflighted just outside off as this is drilled straight to sweeper cover  </p>]'
p1726
ssS'15.4'
p1727
(dp1728
g3
S'Williamson'
p1729
sg5
S'no run'
p1730
sg7
S' Jadeja'
p1731
sg9
S'\nadvances down the track before playing this one straight to short cover point  </p>]'
p1732
ssS'5.6'
p1733
(dp1734
g3
S'Guptill'
p1735
sg5
S'no run'
p1736
sg7
S' Mohammed Shami'
p1737
sg9
S'\nfires in a back of a length delivery which Guptill fails to get away to the leg side  </p>]'
p1738
ssS'15.6'
p1739
(dp1740
g3
S'Taylor'
p1741
sg5
S'2 runs'
p1742
sg7
S' Jadeja'
p1743
sg9
S'\nin the slot as this is driven fiercely to the man at long-off  </p>]'
p1744
ssS'44.3'
p1745
(dp1746
g3
S'Anderson'
p1747
sg5
S'1 run'
p1748
sg7
S' Jadeja'
p1749
sg9
S'\nslaps away a shortish length delivery from Jadeja to long-off  </p>]'
p1750
ssS'49.4'
p1751
(dp1752
g3
S'Anderson'
p1753
sg5
S'2 runs'
p1754
sg7
S' I Sharma'
p1755
sg9
S"\nfull again as Anderson hits this one straight to long-off  and wants two all the way as he hustles back to his end  with Southee able to make his ground at the non-striker's despite the throw from the deep  </p>]"
p1756
ssS'48.2'
p1757
(dp1758
g3
S'Anderson'
p1759
sg5
S'1 run'
p1760
sg7
S' Mohammed Shami'
p1761
sg9
S'\nfull and drilled straight to the fielder at long-off. That one was hit so fast that when they changed the cameras the ball had already arrived to the fielder  </p>]'
p1762
ssS'48.3'
p1763
(dp1764
g3
S'McCullum'
p1765
sg5
S'no run'
p1766
sg7
S' Mohammed Shami'
p1767
sg9
S'\nquicker one just outside off which has Nathan quite late on it. Needs to hand over the strike to Anderson I reckon  </p>]'
p1768
ssS'48.1'
p1769
(dp1770
g3
S'Anderson'
p1771
sg5
S'2 runs'
p1772
sg7
S' Mohammed Shami'
p1773
sg9
S'\nexcellent running from New Zealand as they are able to grab two runs with a hit down to long-on  </p>]'
p1774
ssS'48.6'
p1775
(dp1776
g3
S'McCullum'
p1777
sg5
g474
sg7
S' Mohammed Shami'
p1778
sg9
S'\nfuller one going down the leg side as McCullum ends up hitting this straight back to Shami  who pockets it low around his knees to hold on to the chance. Even the cameraman had lost where that one had gone  </p>]'
p1779
ssS'48.4'
p1780
(dp1781
g3
S'McCullum'
p1782
sg5
S'no run'
p1783
sg7
S' Mohammed Shami'
p1784
sg9
S'\nslower ball outside off which Nathan again fails to get bat on ball to  </p>]'
p1785
ssS'48.5'
p1786
(dp1787
g3
S'McCullum'
p1788
sg5
S'no run'
p1789
sg7
S' Mohammed Shami'
p1790
sg9
S'\nbouncer outside off which is ruled a legitimate ball by the umpire despite it shaping away slightly. Ruled one for the over  </p>]'
p1791
ssS'47.4'
p1792
(dp1793
g3
S'Anderson'
p1794
sg5
S'1 run'
p1795
sg7
S' I Sharma'
p1796
sg9
S'\nlow full toss which is lasered down to long-off  </p>]'
p1797
ssS'32.6'
p1798
(dp1799
g3
S'Williamson'
p1800
sg5
g474
sg7
S' Jadeja'
p1801
sg9
S'\nand all that good work comes undone as this is lofted straight to Rahane  who is stationed at silly mid-off. Williamson deserved to go for a centruy  but it looks like he had a lapse of concentration there  </p>]'
p1802
ss.