(dp0
S'33.5'
p1
(dp2
S'to'
p3
S'Williamson'
p4
sS'what'
p5
S'no run'
p6
sS'from'
p7
S' Kohli'
p8
sS'why'
p9
S"\nchopped to point and he doesn't time it properly as this goes off the bottom of the bat to point  </p>]"
p10
ssS'35.2'
p11
(dp12
g3
S'Taylor'
p13
sg5
S'no run'
p14
sg7
S' Mohammed Shami'
p15
sg9
S"\n136 kph  bit if width outside off as this is on a length. Taylor chops it away to point. Normally in this series he's beaten that man  </p>]"
p16
ssS'35.3'
p17
(dp18
g3
S'Taylor'
p19
sg5
S'1 run'
p20
sg7
S' Mohammed Shami'
p21
sg9
S'\n131 kph  full on middle as he works it down the ground to long-on  </p>]'
p22
ssS'35.1'
p23
(dp24
g3
S'Williamson'
p25
sg5
S'1 run'
p26
sg7
S' Mohammed Shami'
p27
sg9
S'\nfull on off stump as he presses forward and drives back down the ground. The ball ricochets off the bowler for a single to mid-on  </p>]'
p28
ssS'35.6'
p29
(dp30
g3
S'Taylor'
p31
sg5
S'1 run'
p32
sg7
S' Mohammed Shami'
p33
sg9
S'\nopens the face as he finds point again as this is on a length around off stump  </p>]'
p34
ssS'35.4'
p35
(dp36
g3
S'Williamson'
p37
sg5
S'6 run'
p38
sg7
S' Mohammed Shami'
p39
sg9
S"\nmagic! Plonks his front foot forward as he picked up the slower ball and lofted him straight over long-off. Just an extension of defence and it's been perfectly timed. There's an man in the orange shirt who gets a hand to it but can't hold on. 100 grand drop  </p>]"
p40
ssS'35.5'
p41
(dp42
g3
S'Williamson'
p43
sg5
S'1 run'
p44
sg7
S' Mohammed Shami'
p45
sg9
S'\ndabs it into the point region as this is shortish and on and around off stump  </p>]'
p46
ssS'7.2'
p47
(dp48
g3
S'Ryder'
p49
sg5
S'4 run'
p50
sg7
S' Kumar'
p51
sg9
S"\n132 kph  back around the wicket as this is on a length and Ryder goes for it. It's a typical slog and he doesn't connect properly. Plonked his front foot forward and heaved it over mid-on  </p>]"
p52
ssS'6.6'
p53
(dp54
g3
S'Ryder'
p55
sg5
S'no run'
p56
sg7
S' Mohammed Shami'
p57
sg9
S"\n135kph  punched into the covers as he angles this across Ryder. Meets the back of a length ball on the front foot and strikes it quite crisply  but can't beat cover  </p>]"
p58
ssS'12.1'
p59
(dp60
g3
S'Guptill'
p61
sg5
S'2 runs'
p62
sg7
S' Aaron'
p63
sg9
S"\nthis one he's got hold of. Stands up tall and slaps it through extra cover as this is short and outside off. Solid straight bat comes down on the ball as he hits through the line  </p>]"
p64
ssS'7.1'
p65
(dp66
g3
S'Guptill'
p67
sg5
S'1 run'
p68
sg7
S' Kumar'
p69
sg9
S'\nfull and it seams away just a touch  Guptill is forward and blocks into extra cover and they pick up a very well judged single. Played with softer hands that time  </p>]'
p70
ssS'6.3'
p71
(dp72
g3
S'Ryder'
p73
sg5
S'no run'
p74
sg7
S' Mohammed Shami'
p75
sg9
S'\nmild appeal as this strikes Ryder just above the pads as he was jumping up and looking to flick it away. Think it pitched outside leg  but either way it was definitely too high. Ryder must have been struck hard as he sinks on his honches at square leg  </p>]'
p76
ssS'12.6'
p77
(dp78
g3
S'Taylor'
p79
sg5
S'no run'
p80
sg7
S' Aaron'
p81
sg9
S'\n143 kph  spears it in on middle and this seemed pretty adjacent as Aaron goes up in appeal  only Taylor gets a timely inside edge to it as he came forward to drive to mid-on  </p>]'
p82
ssS'6.1'
p83
(dp84
g3
S'Ryder'
p85
sg5
S'no run'
p86
sg7
S' Mohammed Shami'
p87
sg9
S'\nfull on off stump as he inches forward and pushes to mid-off with a straight bat  </p>]'
p88
ssS'12.4'
p89
(dp90
g3
S'Taylor'
p91
sg5
S'no run'
p92
sg7
S' Aaron'
p93
sg9
S'\nfullish on the stumps as he blocks nicely with a straight bat  </p>]'
p94
ssS'37.1'
p95
(dp96
g3
S'Williamson'
p97
sg5
S'1 run'
p98
sg7
S' Aaron'
p99
sg9
S'\nback of a length just outside off as Williamson lets it come on and dabs to deep third man  </p>]'
p100
ssS'37.2'
p101
(dp102
g3
S'Taylor'
p103
sg5
S'1 run'
p104
sg7
S' Aaron'
p105
sg9
S'\nwhipped away to deep square leg. Very strong wristwork as this was a length ball that tails into him  </p>]'
p106
ssS'37.3'
p107
(dp108
g3
S'Williamson'
p109
sg5
S'OUT'
p110
sg7
S' Aaron'
p111
sg9
S"\nhe won't get his hundred. Fullish delivery outside off as he goes for the front foot slice over point  but Rahane jumps up and picks up a smart catch. He's been playing that shot over extra all this time  could have gone for that option again instead of trying to hit square. Nonetheless  he's set New Zealand up for a mighty good score again  </p>]"
p112
ssS'37.4'
p113
(dp114
g3
S'McCullum'
p115
sg5
S'1 run'
p116
sg7
S' Aaron'
p117
sg9
S'\nback of a length on middle and leg as he nudges it in front of square leg  </p>]'
p118
ssS'37.5'
p119
(dp120
g3
S'Taylor'
p121
sg5
S'1 run'
p122
sg7
S' Aaron'
p123
sg9
S'\njust a bit too much room on offer as he gets a thickish edge to deep third man  </p>]'
p124
ssS'37.6'
p125
(dp126
g3
S'McCullum'
p127
sg5
S'no run'
p128
sg7
S' Aaron'
p129
sg9
S'\n143kph  back of a length on off stump even as he comes forward and opens the face to nudge into the covers  </p>]'
p130
ssS'42.3'
p131
(dp132
g3
S'Taylor'
p133
sg5
S'1 run  </p>]'
p134
sg7
S' Jadeja'
p135
sg9
S''
p136
ssS'10.1'
p137
(dp138
g3
S'Williamson'
p139
sg5
S'no run'
p140
sg7
S' Aaron'
p141
sg9
S'\nfull and tails away just a touch at 138 kph. Williamson is nicely behind it as he blocks back to the bowler  </p>]'
p142
ssS'10.3'
p143
(dp144
g3
S'Williamson'
p145
sg5
S'no run'
p146
sg7
S' Aaron'
p147
sg9
S"\n138kph  full and probes on the fifth stump line as Williamson watches the ball all the way through to the keeper's gloves as he leaves  </p>]"
p148
ssS'10.2'
p149
(dp150
g3
S'Williamson'
p151
sg5
S'no run'
p152
sg7
S' Aaron'
p153
sg9
S'\nback of a length on off stump as Williamson is balanced on his back foot and defends  </p>]'
p154
ssS'10.5'
p155
(dp156
g3
S'Williamson'
p157
sg5
S'2 runs'
p158
sg7
S' Aaron'
p159
sg9
S'\ngoes short and angles it a bit too far down the leg side as Williamson rocks back and hooks down to fine leg. Excellent roll of the wrists and they pick up two  </p>]'
p160
ssS'10.4'
p161
(dp162
g3
S'Williamson'
p163
sg5
S'no run'
p164
sg7
S' Aaron'
p165
sg9
S'\nlovely straight drive from Williamson  gets forward and brings the full face down on this full dellivery on off stump  </p>]'
p166
ssS'10.6'
p167
(dp168
g3
S'Williamson'
p169
sg5
S'no run'
p170
sg7
S' Aaron'
p171
sg9
S"\ndabs it into the point region with soft hands and looks for the single  but it isn't there. Ends the over with a back of a length delivery outside off  </p>]"
p172
ssS'43.1'
p173
(dp174
g3
S'Taylor'
p175
sg5
g38
sg7
S' Kohli'
p176
sg9
S"\nslog sweep over midwicket and he has got all of this. The first six for Taylor in this series and it's the old faithful. Overpitched outside off and he creams it after going down on one knee  </p>]"
p177
ssS'33.3'
p178
(dp179
g3
S'Williamson'
p180
sg5
S'1 run'
p181
sg7
S' Kohli'
p182
sg9
S'\nbit more width outside off as he moves forward and flays it through the covers  </p>]'
p183
ssS'44.6'
p184
(dp185
g3
S'Neesham'
p186
sg5
g50
sg7
S' Aaron'
p187
sg9
S'\n145kph  pulls over midwicket! Think he was waiting for that as Aaron goes for the short ball  but this has some room for Neesham to swing his arms and swing he does.  </p>]'
p188
ssS'16.6'
p189
(dp190
g3
S'Taylor'
p191
sg5
S'no run'
p192
sg7
S' Aaron'
p193
sg9
S'\n150kph  fullish on off stump as Taylor moves forward and opens the face to find point. Phew  some serious pace from Aaron. But he does stray a touch  </p>]'
p194
ssS'16.5'
p195
(dp196
g3
S'Williamson'
p197
sg5
S'1 run'
p198
sg7
S' Aaron'
p199
sg9
S'\n146 kph  rises up on his toes to guides this short ball outside off down to third man. No more slip now  </p>]'
p200
ssS'16.4'
p201
(dp202
g3
S'Taylor'
p203
sg5
S'1 run'
p204
sg7
S' Aaron'
p205
sg9
S'\ntightens his line  but strays into the pads because of that. Taylor works it away to long leg  </p>]'
p206
ssS'16.3'
p207
(dp208
g3
S'Taylor'
p209
sg5
g50
sg7
S' Aaron'
p210
sg9
S'\n145kph  this time through extra cover! A bit too full and Taylor goes forward and hits through the line. Right off the middle and the fielder gives it up pretty quickly. That was too well timed  </p>]'
p211
ssS'16.2'
p212
(dp213
g3
S'Taylor'
p214
sg5
S'no run'
p215
sg7
S' Aaron'
p216
sg9
S'\nfull on middle and it shapes away but Taylor is behind it and defends down the pitch.  </p>]'
p217
ssS'16.1'
p218
(dp219
g3
S'Williamson'
p220
sg5
S'1 run'
p221
sg7
S' Aaron'
p222
sg9
S'\nback of a length and just outside off as Williamson lets it come on and dabs it past the lone fly slip position  </p>]'
p223
ssS'44.1'
p224
(dp225
g3
S'Taylor'
p226
sg5
S'1 run'
p227
sg7
S' Aaron'
p228
sg9
S'\n140kph  fullsh and just outside off as Taylor moves across and drives to long-on  </p>]'
p229
ssS'43.2'
p230
(dp231
g3
S'Taylor'
p232
sg5
g50
sg7
S' Kohli'
p233
sg9
S'\nthis time its a full toss outside off and Taylor moves across to the off side and sweeps it all along the ground through square leg  </p>]'
p234
ssS'43.4'
p235
(dp236
g3
S'McCullum'
p237
sg5
S'2 runs'
p238
sg7
S' Kohli'
p239
sg9
S'\nshort and wide outside off as Baz rocks back and cuts through the covers. The man in the deep has a lot of work to do as this was timed quite well.  </p>]'
p240
ssS'14.4'
p241
(dp242
g3
S'Taylor'
p243
sg5
S'no run'
p244
sg7
S' Aaron'
p245
sg9
S'\nfullish and targeting top of off as Taylor defends from the crease  </p>]'
p246
ssS'45.3'
p247
(dp248
g3
S'Neesham'
p249
sg5
S'1 run'
p250
sg7
S' Mohammed Shami'
p251
sg9
S'\n137kph  keeps to a full length on middle and off as Neesham brings down a straight bat. Timed it well enough to ensure the bowler misfields as he sticks out a hand  </p>]'
p252
ssS'45.2'
p253
(dp254
g3
S'Taylor'
p255
sg5
S'1 run'
p256
sg7
S' Mohammed Shami'
p257
sg9
S'\n137kph  nice and full on middle again as Taylor is forward and drives to long-on  </p>]'
p258
ssS'45.1'
p259
(dp260
g3
S'Taylor'
p261
sg5
S'no run'
p262
sg7
S' Mohammed Shami'
p263
sg9
S'\n136 kph  yorker on off stump as he manages to dig it out  </p>]'
p264
ssS'45.6'
p265
(dp266
g3
S'Taylor'
p267
sg5
S'1 run'
p268
sg7
S' Mohammed Shami'
p269
sg9
S"\n137 kph  overpitched this time and it had a little bit of room too. Taylor goes for the cover drive but he can't beat the infield. Has to settle for a single  </p>]"
p270
ssS'45.5'
p271
(dp272
g3
S'Taylor'
p273
sg5
S'no run'
p274
sg7
S' Mohammed Shami'
p275
sg9
S'\nanother yorker from Shami  this one on middle and off as he keeps Taylor to a defensive push down the pitch  </p>]'
p276
ssS'45.4'
p277
(dp278
g3
S'Taylor'
p279
sg5
S'2 runs'
p280
sg7
S' Mohammed Shami'
p281
sg9
S"\nneat little couple as Taylor nudges this very full length delivery on middle down to long-on. Very good awareness of the field and how hard he's hit it  </p>]"
p282
ssS'26.6'
p283
(dp284
g3
S'Williamson'
p285
sg5
S'no run'
p286
sg7
S' Jadeja'
p287
sg9
S'\ntossed up outside off as he moves across to try and sweep. Struck on the top flap as Jadeja appeals  but he was outside the line  </p>]'
p288
ssS'26.4'
p289
(dp290
g3
S'Taylor'
p291
sg5
S'3 runs'
p292
sg7
S' Jadeja'
p293
sg9
S'\ntoo straight  even if it is full. Taylor glances it fine to pick up three  </p>]'
p294
ssS'26.5'
p295
(dp296
g3
S'Williamson'
p297
sg5
S'no run'
p298
sg7
S' Jadeja'
p299
sg9
S'\ngood length just outside off as Williamson is on the back foot and dabs to backward point  </p>]'
p300
ssS'26.2'
p301
(dp302
g3
S'Williamson'
p303
sg5
S'no run'
p304
sg7
S' Jadeja'
p305
sg9
S'\ntouch short as he moves outside leg and cuts towards point  </p>]'
p306
ssS'26.3'
p307
(dp308
g3
S'Williamson'
p309
sg5
S'1 run'
p310
sg7
S' Jadeja'
p311
sg9
S'\nnudged towards deep midwicket as this is full on leg  </p>]'
p312
ssS'26.1'
p313
(dp314
g3
S'Williamson'
p315
sg5
S'no run'
p316
sg7
S' Jadeja'
p317
sg9
S'\nfullish on off stump as he defends down the ground  </p>]'
p318
ssS'14.5'
p319
(dp320
g3
S'Taylor'
p321
sg5
S'no run'
p322
sg7
S' Aaron'
p323
sg9
S'\nfull and just outside off as Taylor presses forward and squirts it off an open face to the covers  </p>]'
p324
ssS'12.3'
p325
(dp326
g3
S'Taylor'
p327
sg5
S'no run'
p328
sg7
S' Aaron'
p329
sg9
S'\nshort ball to start off and this is at 143 kph. Outside off though so he lets it go  </p>]'
p330
ssS'14.6'
p331
(dp332
g3
S'Taylor'
p333
sg5
g50
sg7
S' Aaron'
p334
sg9
S'\n145 kph  absolutely perfect from Taylor. Too full and he moves confidently forward and flays it through the covers. Races away  </p>]'
p335
ssS'14.1'
p336
(dp337
g3
S'Taylor'
p338
sg5
g50
sg7
S' Aaron'
p339
sg9
S"\nmagnificent. Just a bit of width outside off and Taylor's off side play is too good. Strides forward and drives in front of point and it rolls away  </p>]"
p340
ssS'14.3'
p341
(dp342
g3
S'Williamson'
p343
sg5
S'1 run'
p344
sg7
S' Aaron'
p345
sg9
S'\nshort with some width outside off as Williamson cuts over point. Almost carried through to the deep third man  </p>]'
p346
ssS'12.2'
p347
(dp348
g3
S'Guptill'
p349
sg5
g110
sg7
S' Aaron'
p350
sg9
S"\nthis time it's taken at mid-on! Shami gets his buckets under it  well just about. It was on a good length on middle and off and he was looking to clip it through midwicket. But he had played the shot too early and looked to check his shot. Gets a leading edge which lobs to the man at mid-on who runs forward and holds it in his fingertips  </p>]"
p351
ssS'24.4'
p352
(dp353
g3
S'Taylor'
p354
sg5
S'3 runs'
p355
sg7
S' Jadeja'
p356
sg9
S'\nfires it down the pads as Taylor moves across to the off side and tickles it fine. They hustle through for three runs  taking one of them off the throw  </p>]'
p357
ssS'24.5'
p358
(dp359
g3
S'Williamson'
p360
sg5
S'no run'
p361
sg7
S' Jadeja'
p362
sg9
S'\nflighted on middle as he goes back and pushes down the ground. Jadeja runs to his right and dives to keep that to none  </p>]'
p363
ssS'24.6'
p364
(dp365
g3
S'Williamson'
p366
sg5
S'1 run'
p367
sg7
S' Jadeja'
p368
sg9
S'\nadvances down the track as he gets to the pitch and drives to long-off  </p>]'
p369
ssS'14.2'
p370
(dp371
g3
S'Taylor'
p372
sg5
S'3 runs'
p373
sg7
S' Aaron'
p374
sg9
S"\nfull on off stump and he drives through the line. Just pushed it down the ground with a straight bat and makes sure it beat's Aaron's dive to the right. Neat strike  wasn't looking to hit it too hard at all  </p>]"
p375
ssS'6.5'
p376
(dp377
g3
S'Ryder'
p378
sg5
S'no run'
p379
sg7
S' Mohammed Shami'
p380
sg9
S'\n141 kph  back of a length and keeps it tight on middle and Ryder can only nudge it down to mid-on  </p>]'
p381
ssS'24.2'
p382
(dp383
g3
S'Taylor'
p384
sg5
S'no run'
p385
sg7
S' Jadeja'
p386
sg9
S'\nfull on off stump as he defends towards mid-on  </p>]'
p387
ssS'24.3'
p388
(dp389
g3
S'Taylor'
p390
sg5
S'2 runs'
p391
sg7
S' Jadeja'
p392
sg9
S"\nwas in position for the sweep quite early and though Jadeja speared it outside off stump  he's able to beat short fine  </p>]"
p393
ssS'22.2'
p394
(dp395
g3
S'Taylor'
p396
sg5
S'1 run  </p>]'
p397
sg7
S' Jadeja'
p398
sg9
g136
ssS'22.3'
p399
(dp400
g3
S'Williamson'
p401
sg5
S'no run'
p402
sg7
S' Jadeja'
p403
sg9
S'\nfull and flat on off stump as Williamson pushes to mid-off  </p>]'
p404
ssS'49.5'
p405
(dp406
g3
S'Ronchi'
p407
sg5
S'1 run'
p408
sg7
S' Mohammed Shami'
p409
sg9
S'\nyorker on off stump as he takes his front leg out of the way to drive down the ground. Only manages an inside edge  </p>]'
p410
ssS'6.4'
p411
(dp412
g3
S'Ryder'
p413
sg5
S'no run'
p414
sg7
S' Mohammed Shami'
p415
sg9
S'\nshort of a good length  just outside off as he opens the face off the back foot to point  </p>]'
p416
ssS'22.6'
p417
(dp418
g3
S'Taylor'
p419
sg5
S'no run'
p420
sg7
S' Jadeja'
p421
sg9
S'\nfullish on the stumps as he goes back and pushes towards mid-on  </p>]'
p422
ssS'49.2'
p423
(dp424
g3
S'Neesham'
p425
sg5
g50
sg7
S' Mohammed Shami'
p426
sg9
S'\nfull toss outside off and this is flayed away over point. Powerful strike again and India are staring down another 300-plus score  </p>]'
p427
ssS'22.4'
p428
(dp429
g3
S'Williamson'
p430
sg5
S'no run'
p431
sg7
S' Jadeja'
p432
sg9
S'\nbit more air but he still stays back in his crease and slices the ball to short third man  </p>]'
p433
ssS'22.5'
p434
(dp435
g3
S'Williamson'
p436
sg5
S'1 run'
p437
sg7
S' Jadeja'
p438
sg9
S'\nstands up tall as he pushes this length ball on middle to long-on. No spin in this pitch  </p>]'
p439
ssS'7.6'
p440
(dp441
g3
S'Williamson'
p442
sg5
S'no run'
p443
sg7
S' Kumar'
p444
sg9
S'\ntails in on off stump and Williamson moves forward  keeps bat and pad together as he blocks  </p>]'
p445
ssS'43.6'
p446
(dp447
g3
S'Neesham'
p448
sg5
S'no run'
p449
sg7
S' Kohli'
p450
sg9
S'\nlength ball just outside off as he opens the face to steer to point  </p>]'
p451
ssS'36.30'
p452
(dp453
g3
S'Taylor'
p454
sg5
S'1 wide'
p455
sg7
S' Kumar'
p456
sg9
S'\nfull and fired down the leg side as Taylor moved across outside off and looked to slog it away into the leg side  </p>]'
p457
ssS'6.2'
p458
(dp459
g3
S'Ryder'
p460
sg5
S'no run'
p461
sg7
S' Mohammed Shami'
p462
sg9
S'\n140 kph  probes away outside off as he keeps to a good length. Ryder was intending to push it through the covers  but then pulls his bat away  </p>]'
p463
ssS'4.10'
p464
(dp465
g3
S'Ryder'
p466
sg5
g455
sg7
S' Mohammed Shami'
p467
sg9
S'\nbouncer first up to Ryder as well  this one a bit down the leg side. Ryder ducks under and watches the umpire stretch his hands out  </p>]'
p468
ssS'7.4'
p469
(dp470
g3
S'Ryder'
p471
sg5
g110
sg7
S' Kumar'
p472
sg9
S"\nRahane takes it on the second grab at gully! It was very full and it swings late enough to lure Ryder's outside edge as he looks for a punishing cover drive. Rahane had to dive to his right but he didn't cup it properly first time around  but the ball was parried in the air long enough for him to dive at the ball going behind him and hold it safely  </p>]"
p473
ssS'34.6'
p474
(dp475
g3
S'Taylor'
p476
sg5
S'no run'
p477
sg7
S' Jadeja'
p478
sg9
S'\nfull on middle and leg as he leans forward and turns it around to square leg  </p>]'
p479
ssS'34.5'
p480
(dp481
g3
S'Williamson'
p482
sg5
S'1 run'
p483
sg7
S' Jadeja'
p484
sg9
S'\nflighted on off stump as he pushes to long-off with a giant stride forward  </p>]'
p485
ssS'7.5'
p486
(dp487
g3
S'Williamson'
p488
sg5
S'no run'
p489
sg7
S' Kumar'
p490
sg9
S'\ngood length ball outside off as Williamson leaves it alone  </p>]'
p491
ssS'34.3'
p492
(dp493
g3
S'Williamson'
p494
sg5
S'no run'
p495
sg7
S' Jadeja'
p496
sg9
S'\npushed down to mid-on as this is fullish on leg stump  </p>]'
p497
ssS'34.2'
p498
(dp499
g3
S'Williamson'
p500
sg5
S'no run'
p501
sg7
S' Jadeja'
p502
sg9
S'\nblocked back to the bowler as this is flatter and on middle  </p>]'
p503
ssS'34.1'
p504
(dp505
g3
S'Williamson'
p506
sg5
g50
sg7
S' Jadeja'
p507
sg9
S"\ninside out over extra again! He's just too good with that stroke. Moved down the track  reached the pitch and lofted it over the man in the infield despite his leap  </p>]"
p508
ssS'24.1'
p509
(dp510
g3
S'Williamson'
p511
sg5
S'1 run'
p512
sg7
S' Jadeja'
p513
sg9
S'\ntoo close to cut as he gets a bit of a bottom edge as this was a touch fuller on fourth stump.  </p>]'
p514
ssS'3.6'
p515
(dp516
g3
S'Guptill'
p517
sg5
S'no run'
p518
sg7
S' Kumar'
p519
sg9
S'\n131 kph  good length ball on off stump as he presses forward and blocks solidly  </p>]'
p520
ssS'3.4'
p521
(dp522
g3
S'Ryder'
p523
sg5
S'1 leg bye'
p524
sg7
S' Kumar'
p525
sg9
S'\nfull and on leg stump  Ryder was looking for the flick but it went off the pads  </p>]'
p526
ssS'3.5'
p527
(dp528
g3
S'Guptill'
p529
sg5
S'no run'
p530
sg7
S' Kumar'
p531
sg9
S'\nfullish on middle and leg as Guptill is forward and pushes a bit wide of mid-on  but Aaron looks an improved fielder today  moving quickly to get behind the ball  </p>]'
p532
ssS'3.2'
p533
(dp534
g3
S'Ryder'
p535
sg5
S'2 runs'
p536
sg7
S' Kumar'
p537
sg9
S"\nthere's a Ryder special. Sees a bit of room outside off  stands up and punches it in front of point. Not hit too hard because if it had been that would have been four  </p>]"
p538
ssS'3.3'
p539
(dp540
g3
S'Ryder'
p541
sg5
S'no run'
p542
sg7
S' Kumar'
p543
sg9
S'\nfullish on middle and leg as it draws Ryder forward into a defensive push to mid-off. Seams away after pitching to end up on off stump  </p>]'
p544
ssS'3.1'
p545
(dp546
g3
S'Ryder'
p547
sg5
S'2 runs'
p548
sg7
S' Kumar'
p549
sg9
S"\nfullish  but this time it's on the pads and Ryder finds the gap wide of mid-on. There was a bit of seam away  but the line was wrong  </p>]"
p550
ssS'2.3'
p551
(dp552
g3
S'Guptill'
p553
sg5
S'no run'
p554
sg7
S' Mohammed Shami'
p555
sg9
S'\n140 kph  good short ball  just outside the off stump without giving too much room. Guptill was looking to hook originally  but then pulled out  </p>]'
p556
ssS'2.2'
p557
(dp558
g3
S'Guptill'
p559
sg5
S'no run'
p560
sg7
S' Mohammed Shami'
p561
sg9
S'\n139 kph  short and on middle and leg again. Guptill was hopping a little at the crease as he looks to block. Takes the thigh pad and falls at his feet  </p>]'
p562
ssS'2.1'
p563
(dp564
g3
S'Guptill'
p565
sg5
S'no run'
p566
sg7
S' Mohammed Shami'
p567
sg9
S'\n141 kph  back of a length on off stump as he cramps Guptill up.  </p>]'
p568
ssS'36.6'
p569
(dp570
g3
S'Williamson'
p571
sg5
S'1 run'
p572
sg7
S' Kumar'
p573
sg9
S'\nthe more orthodox steer to deep third man as this is back of a length outside off. Partnership moves to 150  </p>]'
p574
ssS'36.1'
p575
(dp576
g3
S'Taylor'
p577
sg5
S'no run'
p578
sg7
S' Kumar'
p579
sg9
S'\ngood length ball just outside off as Taylor comes forward and blocks  </p>]'
p580
ssS'2.6'
p581
(dp582
g3
S'Guptill'
p583
sg5
S'no run'
p584
sg7
S' Mohammed Shami'
p585
sg9
S'\n138kph  fuller and on middle as Guptill moves back and works towards square leg  </p>]'
p586
ssS'2.5'
p587
(dp588
g3
S'Guptill'
p589
sg5
S'no run'
p590
sg7
S' Mohammed Shami'
p591
sg9
S'\n143 kph  just short of a good length as Guptill stays deep in his crease and dabs it more towards point this time.  </p>]'
p592
ssS'2.4'
p593
(dp594
g3
S'Guptill'
p595
sg5
S'no run'
p596
sg7
S' Mohammed Shami'
p597
sg9
S'\nbit of confusion there and Ryder makes the right call. Back of a length  just outside off stump as Guptill dabs into the covers and looks for a quick run. Not there  </p>]'
p598
ssS'20.1'
p599
(dp600
g3
S'Williamson'
p601
sg5
S'1 leg bye'
p602
sg7
S' Aaron'
p603
sg9
S'\n145 kph  full and strays a bit down the leg side  Williamson was looking to clip it away square  but it goes off the pads  </p>]'
p604
ssS'20.2'
p605
(dp606
g3
S'Taylor'
p607
sg5
g50
sg7
S' Aaron'
p608
sg9
S'\n146kph  shortish and a bit outside off. Lures Taylor to cut. But he gets a very thick edge and it goes too fine for deep third man to be in play.  </p>]'
p609
ssS'20.3'
p610
(dp611
g3
S'Taylor'
p612
sg5
S'no run'
p613
sg7
S' Aaron'
p614
sg9
S'\nback of a length at 147 kph as Taylor jumps back and blocks this one just outside off  </p>]'
p615
ssS'20.4'
p616
(dp617
g3
S'Taylor'
p618
sg5
g50
sg7
S' Aaron'
p619
sg9
S'\n143 kph  too wide outside off this time and Taylor has no trouble slapping over and behind point. Easy put away as that brings up the fifty partnership between these two  </p>]'
p620
ssS'20.5'
p621
(dp622
g3
S'Taylor'
p623
sg5
S'no run'
p624
sg7
S' Aaron'
p625
sg9
S'\n150kph  corrects his line as this is fuller and seeking top of off. Taylor moves forward and blocks  </p>]'
p626
ssS'20.6'
p627
(dp628
g3
S'Taylor'
p629
sg5
S'1 run'
p630
sg7
S' Aaron'
p631
sg9
S'\nshort of a length and outside off stump as he cuts it to deep point  </p>]'
p632
ssS'49.6'
p633
(dp634
g3
S'Neesham'
p635
sg5
S'1 bye'
p636
sg7
S' Mohammed Shami'
p637
sg9
S'\nlooks to try something cute as he moves right across outside off and tries to scoop this full length ball over fine leg. Would have done better to stay in his crease and belt that through the covers. Ronchi sneaks in a bye and that ends a pretty solid batting performance by New Zealand  </p>]'
p638
ssS'46.3'
p639
(dp640
g3
S'Neesham'
p641
sg5
S'1 run'
p642
sg7
S' Aaron'
p643
sg9
S'\n147 kph  full toss on middle as he looks to swing it away. Gets an inside edge onto the back of his front knee and they scurry through for the single  </p>]'
p644
ssS'42.1'
p645
(dp646
g3
S'McCullum'
p647
sg5
g50
sg7
S' Jadeja'
p648
sg9
S'\ngoes down the track even if Jadeja had bowled this flat and cramped him for room. Baz swings it away wide of long-on and picks up a useful boundary  </p>]'
p649
ssS'22.1'
p650
(dp651
g3
S'Williamson'
p652
sg5
S'1 run'
p653
sg7
S' Jadeja'
p654
sg9
S'\ngood length ball pushed through on leg stump as Willliamson goes back and punches down the ground  </p>]'
p655
ssS'49.3'
p656
(dp657
g3
S'Neesham'
p658
sg5
g50
sg7
S' Mohammed Shami'
p659
sg9
S'\nand there it is  overpitched on leg stump and he gets forward and whips it away effortlessly over square leg. Searching for the yorker but has missed his length by just a little  </p>]'
p660
ssS'39.1'
p661
(dp662
g3
S'McCullum'
p663
sg5
g38
sg7
S' Aaron'
p664
sg9
S'\nchance in the crowd but the orange shirts miss out again. Short on middle as he swivels on the back foot and pulls it over square leg. Strong stroke  </p>]'
p665
ssS'11.60'
p666
(dp667
g3
S'Williamson'
p668
sg5
g455
sg7
S' Kumar'
p669
sg9
S"\ntries another bouncer and this time he isn't so lucky  wide called as this sails over the batsman's head outside off  </p>]"
p670
ssS'21.5'
p671
(dp672
g3
S'Williamson'
p673
sg5
S'1 run'
p674
sg7
S' Ashwin'
p675
sg9
S'\nflighted on the pads as he brings a straight bat down on it  </p>]'
p676
ssS'49.1'
p677
(dp678
g3
S'Neesham'
p679
sg5
g38
sg7
S' Mohammed Shami'
p680
sg9
S'\ngifts a full toss on off stump and he smacks it over deep midwicket. Flat  hard and monstrously hit. An orange shirt leans over the balcony to try and pluck some cash  dangerous stuff  if not for his mate clinging onto his trousers and balancing him  </p>]'
p681
ssS'40.2'
p682
(dp683
g3
S'Taylor'
p684
sg5
S'no run'
p685
sg7
S' Jadeja'
p686
sg9
S'\nfullish on off stump as he draws the batsman forward to defend  </p>]'
p687
ssS'40.3'
p688
(dp689
g3
S'Taylor'
p690
sg5
S'no run'
p691
sg7
S' Jadeja'
p692
sg9
S'\ngood length ball on off stump again as Taylor pushes towards mid-off but Jadeja gets in between  </p>]'
p693
ssS'40.1'
p694
(dp695
g3
S'McCullum'
p696
sg5
S'1 run'
p697
sg7
S' Jadeja'
p698
sg9
S'\nflighted on middle and leg as he draws the batsman forward. Blocked into the leg side and they scurry through for the single  </p>]'
p699
ssS'40.6'
p700
(dp701
g3
S'Taylor'
p702
sg5
S'1 run'
p703
sg7
S' Jadeja'
p704
sg9
S"\npushed down to long-on as he flights it on middle. Jadeja had to run around the non-striker and wasn't able to stop the ball despite sticking his boot out  </p>]"
p705
ssS'40.4'
p706
(dp707
g3
S'Taylor'
p708
sg5
S'1 run'
p709
sg7
S' Jadeja'
p710
sg9
S'\ngoes shorter outside off as he rocks back and cuts to short third man  </p>]'
p711
ssS'40.5'
p712
(dp713
g3
S'McCullum'
p714
sg5
S'1 run'
p715
sg7
S' Jadeja'
p716
sg9
S'\nflat on middle and off as he shuffles outside off and clips through midwicket  </p>]'
p717
ssS'27.3'
p718
(dp719
g3
S'Williamson'
p720
sg5
S'1 run'
p721
sg7
S' Kohli'
p722
sg9
S'\nmores in as he keeps it full and Williamson is forward and opens the face to short third man  </p>]'
p723
ssS'27.2'
p724
(dp725
g3
S'Williamson'
p726
sg5
S'no run'
p727
sg7
S' Kohli'
p728
sg9
S'\ntouch too full to cut there as he is beaten outside off  </p>]'
p729
ssS'27.1'
p730
(dp731
g3
S'Taylor'
p732
sg5
S'1 run'
p733
sg7
S' Kohli'
p734
sg9
S"\nvery tight single there and they're quick enough to make it. Shortish and outside off as he dabs it softly towards point  </p>]"
p735
ssS'21.6'
p736
(dp737
g3
S'Taylor'
p738
sg5
g50
sg7
S' Ashwin'
p739
sg9
S'\ntouch too short and Taylor moves outside leg and cuts behind point. Boy  how quickly did he get into position  and did someone get the number of the bat swing on that!  </p>]'
p740
ssS'43.3'
p741
(dp742
g3
S'Taylor'
p743
sg5
S'1 run'
p744
sg7
S' Kohli'
p745
sg9
S'\nfull and wide outside off as he drives to deep point  </p>]'
p746
ssS'27.6'
p747
(dp748
g3
S'Williamson'
p749
sg5
S'2 runs'
p750
sg7
S' Kohli'
p751
sg9
S'\nlength ball as he goes back and works it off his hips to deep square leg  </p>]'
p752
ssS'27.5'
p753
(dp754
g3
S'Taylor'
p755
sg5
S'1 run'
p756
sg7
S' Kohli'
p757
sg9
S'\nfull and angled in as Taylor strides forward and drives to deep cover point  </p>]'
p758
ssS'27.4'
p759
(dp760
g3
S'Taylor'
p761
sg5
S'no run'
p762
sg7
S' Kohli'
p763
sg9
S'\ntouch too short and quite wide outside off as he slaps it straight to the fielder at point  </p>]'
p764
ssS'21.1'
p765
(dp766
g3
S'Taylor'
p767
sg5
S'1 run'
p768
sg7
S' Ashwin'
p769
sg9
S"\nflighted on middle as Taylor drives past a diving Ashwin. One of the few he's flighted today  </p>]"
p770
ssS'42.2'
p771
(dp772
g3
S'McCullum'
p773
sg5
S'1 run'
p774
sg7
S' Jadeja'
p775
sg9
S'\noh  he slides then slips and would have been out on had it hit direct. It was fired in on off stump and Baz was looking to go so far forward that he slips. Then while running  he stumbles. Rohit had enough time to throw the stumps down but misses  </p>]'
p776
ssS'12.5'
p777
(dp778
g3
S'Taylor'
p779
sg5
S'no run'
p780
sg7
S' Aaron'
p781
sg9
S'\n144 kph  good length ball speared in on leg stump. Rosco was a little slow on that as it beats his flick and strikes him on the knee-roll. Would have gone down  </p>]'
p782
ssS'42.4'
p783
(dp784
g3
S'McCullum'
p785
sg5
S'2 runs'
p786
sg7
S' Jadeja'
p787
sg9
S'\n<b>dropped</b> charges him and lofts the length ball straight over the top. Shami was the man coming round from long-on and he shells a relatively simple catch  </p>]'
p788
ssS'30.4'
p789
(dp790
g3
S'Williamson'
p791
sg5
S'no run'
p792
sg7
S' Jadeja'
p793
sg9
S'\nflatter delivery on off stump as he pushes back to the bowler  </p>]'
p794
ssS'42.6'
p795
(dp796
g3
S'Taylor'
p797
sg5
S'1 run'
p798
sg7
S' Jadeja'
p799
sg9
S'\ngoes back and cuts behind point as this is a touch short and wide outside off  </p>]'
p800
ssS'25.1'
p801
(dp802
g3
S'Williamson'
p803
sg5
S'no run'
p804
sg7
S' Kohli'
p805
sg9
S'\nwaist high full toss to start and Williamson punches it to mid-on. Both the batsman and the bowler have wry smiles  </p>]'
p806
ssS'25.3'
p807
(dp808
g3
S'Williamson'
p809
sg5
S'1 run'
p810
sg7
S' Kohli'
p811
sg9
S'\nshort and wide outside off as he rocks back and cuts in front of point  </p>]'
p812
ssS'25.2'
p813
(dp814
g3
S'Williamson'
p815
sg5
S'no run'
p816
sg7
S' Kohli'
p817
sg9
S'\nfull and angled in on off stump as he moves forward and drive back to the bowler  </p>]'
p818
ssS'25.5'
p819
(dp820
g3
S'Taylor'
p821
sg5
S'no run'
p822
sg7
S' Kohli'
p823
sg9
S'\nfull and outside off as he drives towards mid-off  </p>]'
p824
ssS'25.4'
p825
(dp826
g3
S'Taylor'
p827
sg5
S'no run'
p828
sg7
S' Kohli'
p829
sg9
S'\ndarts in off the pitch as this is fullish and outside off. Taylor works the angle as he pushes to mid-on  </p>]'
p830
ssS'25.6'
p831
(dp832
g3
S'Taylor'
p833
sg5
S'no run'
p834
sg7
S' Kohli'
p835
sg9
S'\nfull and angled in at him as Taylor pushes to mid-on. Nice  tight start from the part-timer  </p>]'
p836
ssS'21.2'
p837
(dp838
g3
S'Williamson'
p839
sg5
S'1 run'
p840
sg7
S' Ashwin'
p841
sg9
S'\nflatter on leg stump as Williamson skips down the track and works him away to deep midwicket  </p>]'
p842
ssS'28.6'
p843
(dp844
g3
S'Taylor'
p845
sg5
S'no run'
p846
sg7
S' Jadeja'
p847
sg9
S'\nturns it away to backward square leg as this is fullish and on the pads  </p>]'
p848
ssS'23.6'
p849
(dp850
g3
S'Williamson'
p851
sg5
S'1 run'
p852
sg7
S' Ashwin'
p853
sg9
S'\nturned past square leg for a single as Ashwin shortens his length. Brilliant batting against spin.  </p>]'
p854
ssS'23.5'
p855
(dp856
g3
S'Williamson'
p857
sg5
S'2 runs'
p858
sg7
S' Ashwin'
p859
sg9
S'\nchips down the track and this time he hits Ashwin straight over his head  </p>]'
p860
ssS'23.4'
p861
(dp862
g3
S'Williamson'
p863
sg5
g50
sg7
S' Ashwin'
p864
sg9
S'\nbrilliant footwork! charges down and lofts him over extra cover. Made a little bit of room as well and has timed this to perfection  </p>]'
p865
ssS'23.3'
p866
(dp867
g3
S'Williamson'
p868
sg5
S'no run'
p869
sg7
S' Ashwin'
p870
sg9
S'\ndriven down the ground back to the bowler again as this is flighted on middle  </p>]'
p871
ssS'23.2'
p872
(dp873
g3
S'Williamson'
p874
sg5
S'no run'
p875
sg7
S' Ashwin'
p876
sg9
S'\nflighted on leg stump as he chips down the track and drives to Ashwin  </p>]'
p877
ssS'23.1'
p878
(dp879
g3
S'Williamson'
p880
sg5
S'2 runs'
p881
sg7
S' Ashwin'
p882
sg9
S'\nstands up tall as this is on a good length and pushed across him. Not good fielding in the covers as they pick up two  </p>]'
p883
ssS'32.1'
p884
(dp885
g3
S'Taylor'
p886
sg5
S'1 run'
p887
sg7
S' Jadeja'
p888
sg9
S'\ntossed up on middle and leg as he drives to long off. Bit inside out there  </p>]'
p889
ssS'32.3'
p890
(dp891
g3
S'Taylor'
p892
sg5
S'2 runs'
p893
sg7
S' Jadeja'
p894
sg9
S'\ncut away quite fine. It was flatter and quicker on off stump and yet he manage to get it fine of short third man  </p>]'
p895
ssS'32.2'
p896
(dp897
g3
S'Williamson'
p898
sg5
S'1 run'
p899
sg7
S' Jadeja'
p900
sg9
S'\nhas his weight on the back foot as this is tossed up on middle and off and he steers this away to deep cover  </p>]'
p901
ssS'32.5'
p902
(dp903
g3
S'Taylor'
p904
sg5
S'no run'
p905
sg7
S' Jadeja'
p906
sg9
S'\nreaches forward as he defends to the off side  </p>]'
p907
ssS'32.4'
p908
(dp909
g3
S'Taylor'
p910
sg5
S'no run'
p911
sg7
S' Jadeja'
p912
sg9
S'\nbig appeal from Jadeja as he fires this in on middle and leg. Going down though  </p>]'
p913
ssS'32.6'
p914
(dp915
g3
S'Taylor'
p916
sg5
S'no run'
p917
sg7
S' Jadeja'
p918
sg9
S'\nfull on middle and leg as he defends with bat in front of pad  </p>]'
p919
ssS'33.4'
p920
(dp921
g3
S'Taylor'
p922
sg5
S'1 run'
p923
sg7
S' Kohli'
p924
sg9
S'\nlow full toss on off stump as he whips it to long-on  </p>]'
p925
ssS'19.4'
p926
(dp927
g3
S'Taylor'
p928
sg5
S'no run'
p929
sg7
S' Ashwin'
p930
sg9
S'\ngoes on with the arm as Taylor moves back and outside off stump as he works it wide of mid-on but not far enough  </p>]'
p931
ssS'33.6'
p932
(dp933
g3
S'Williamson'
p934
sg5
S'1 run'
p935
sg7
S' Kohli'
p936
sg9
S'\nfull on off stump as he drives solidly to long-off  </p>]'
p937
ssS'33.1'
p938
(dp939
g3
S'Williamson'
p940
sg5
g50
sg7
S' Kohli'
p941
sg9
S'\ndragged it too far short for the pace he bowls. Williamson goes back and pulls powerfully  </p>]'
p942
ssS'33.2'
p943
(dp944
g3
S'Williamson'
p945
sg5
S'no run'
p946
sg7
S' Kohli'
p947
sg9
S'\ndriven back to the bowler  </p>]'
p948
ssS'19.5'
p949
(dp950
g3
S'Taylor'
p951
sg5
S'1 run'
p952
sg7
S' Ashwin'
p953
sg9
S'\ntossed up on leg stump as he leans forward and works it through to deep midwicket  </p>]'
p954
ssS'19.6'
p955
(dp956
g3
S'Williamson'
p957
sg5
S'1 run'
p958
sg7
S' Ashwin'
p959
sg9
S'\ntouch shorter on leg stump as Williamson goes back and clips it through square leg for an easy single  </p>]'
p960
ssS'29.4'
p961
(dp962
g3
S'Williamson'
p963
sg5
S'no run'
p964
sg7
S' Kohli'
p965
sg9
S'\ntouch short and with a bit of width as well as Taylor steers it behind short third man  </p>]'
p966
ssS'39.6'
p967
(dp968
g3
S'Taylor'
p969
sg5
S'no run'
p970
sg7
S' Aaron'
p971
sg9
S'\nlength ball just outside off as he looks to cut  there was a bit of away movement again which makes him miss the ball  </p>]'
p972
ssS'39.4'
p973
(dp974
g3
S'McCullum'
p975
sg5
S'no run'
p976
sg7
S' Aaron'
p977
sg9
S'\n149kph  yorker and it moves away rather late too. Baz looks to carve it through point but misses  </p>]'
p978
ssS'39.5'
p979
(dp980
g3
S'McCullum'
p981
sg5
S'1 run'
p982
sg7
S' Aaron'
p983
sg9
S'\nfull on off stump and a diving effort from Rohit at cover saves a boundary. Baz had got forward quickly and drilled it  </p>]'
p984
ssS'39.2'
p985
(dp986
g3
S'McCullum'
p987
sg5
S'1 run'
p988
sg7
S' Aaron'
p989
sg9
S'\nback of a length outside off as he opens the face and dabs into the covers  </p>]'
p990
ssS'39.3'
p991
(dp992
g3
S'Taylor'
p993
sg5
S'1 run'
p994
sg7
S' Aaron'
p995
sg9
S'\nfullish and just outside off as he leans forward and drives to mid-off.  </p>]'
p996
ssS'19.1'
p997
(dp998
g3
S'Williamson'
p999
sg5
S'2 runs'
p1000
sg7
S' Ashwin'
p1001
sg9
S'\ngood work at deep midwicket as Dhawan dives to his left. It was tossed up on leg stump and Willliamson charges him and lofts over the infield. Clean strike  </p>]'
p1002
ssS'8.1'
p1003
(dp1004
g3
S'Guptill'
p1005
sg5
S'2 runs'
p1006
sg7
S' Mohammed Shami'
p1007
sg9
S'\non the pads and he works it down to long leg for a couple. A bit too short and too straight there  </p>]'
p1008
ssS'21.4'
p1009
(dp1010
g3
S'Taylor'
p1011
sg5
S'1 run'
p1012
sg7
S' Ashwin'
p1013
sg9
S'\nTaylor leans forward and opens the face as this is tossed up on off stump. Quick single through the covers  </p>]'
p1014
ssS'8.3'
p1015
(dp1016
g3
S'Williamson'
p1017
sg5
S'no run'
p1018
sg7
S' Mohammed Shami'
p1019
sg9
S'\n137kph  shortish and outside off as Williamson stands up tall and slaps into the covers  </p>]'
p1020
ssS'8.2'
p1021
(dp1022
g3
S'Guptill'
p1023
sg5
S'1 run'
p1024
sg7
S' Mohammed Shami'
p1025
sg9
S'\nclipped behind square leg as Shami bowls back of a good length and on the pads again  </p>]'
p1026
ssS'8.5'
p1027
(dp1028
g3
S'Guptill'
p1029
sg5
g50
sg7
S' Mohammed Shami'
p1030
sg9
S"\nfull and a bit of width on offer as Guptill flays it through the covers. It was uppish  but he'd found the gap to the left of the man at cover. Decent timing on that  even if the bat face turned on impact  </p>]"
p1031
ssS'8.4'
p1032
(dp1033
g3
S'Williamson'
p1034
sg5
S'1 run'
p1035
sg7
S' Mohammed Shami'
p1036
sg9
S'\nback of a length on and on the stumps as Williamson as he tucks it in front of midwicket for a good  quick single  </p>]'
p1037
ssS'21.3'
p1038
(dp1039
g3
S'Taylor'
p1040
sg5
S'no run'
p1041
sg7
S' Ashwin'
p1042
sg9
S'\ngood length ball  which hardly turns  on off stump as Taylor pushes it back down the pitch  </p>]'
p1043
ssS'8.6'
p1044
(dp1045
g3
S'Guptill'
p1046
sg5
S'no run'
p1047
sg7
S' Mohammed Shami'
p1048
sg9
S'\ngood length on middle and leg as he shuffles across and dabs towards midwicket  </p>]'
p1049
ssS'29.1'
p1050
(dp1051
g3
S'Williamson'
p1052
sg5
S'no run'
p1053
sg7
S' Kohli'
p1054
sg9
S'\nfull and just outside off as he looks to drive through the covers. A little too early into the shot as he gets a bit of an edge down the ground  </p>]'
p1055
ssS'19.3'
p1056
(dp1057
g3
S'Taylor'
p1058
sg5
S'no run'
p1059
sg7
S' Ashwin'
p1060
sg9
S'\nflighted on middle and leg as Taylor comes forward and pushes towards mid-on  </p>]'
p1061
ssS'44.4'
p1062
(dp1063
g3
S'Taylor'
p1064
sg5
S'1 run'
p1065
sg7
S' Aaron'
p1066
sg9
S'\nfull on middle as he leans forward and clips to deep midwicket  </p>]'
p1067
ssS'42.5'
p1068
(dp1069
g3
S'McCullum'
p1070
sg5
S'1 run  </p>]'
p1071
sg7
S' Jadeja'
p1072
sg9
g136
ssS'30.3'
p1073
(dp1074
g3
S'Williamson'
p1075
sg5
S'no run'
p1076
sg7
S' Jadeja'
p1077
sg9
S'\na bit short on off stump as he cuts to short third man  </p>]'
p1078
ssS'44.5'
p1079
(dp1080
g3
S'Neesham'
p1081
sg5
S'no run'
p1082
sg7
S' Aaron'
p1083
sg9
S"\n147kph  full and a bit wide outside off. Neesham's feet don't move much as he looks to drive through the covers and gets a thick bottom edge  </p>]"
p1084
ssS'9.4'
p1085
(dp1086
g3
S'Guptill'
p1087
sg5
S'no run'
p1088
sg7
S' Kumar'
p1089
sg9
S'\nback of a length just outside off as he opens the face and pushes into the covers  </p>]'
p1090
ssS'9.5'
p1091
(dp1092
g3
S'Guptill'
p1093
sg5
S'no run'
p1094
sg7
S' Kumar'
p1095
sg9
S'\nshort enough for him to go back and cover punch to point with an open face  </p>]'
p1096
ssS'9.6'
p1097
(dp1098
g3
S'Guptill'
p1099
sg5
S'no run'
p1100
sg7
S' Kumar'
p1101
sg9
S"\nfullish on that off stump corridor as Guptill is kept to a forward defensive. He really shouldn't be batting out there  bad miss from Aaron  </p>]"
p1102
ssS'9.1'
p1103
(dp1104
g3
S'Williamson'
p1105
sg5
S'1 run'
p1106
sg7
S' Kumar'
p1107
sg9
S'\nmoves it away as he starts on off stump  but Williamson is on the back foot and keeps the bat close to the body and plays it very late down to third man  </p>]'
p1108
ssS'9.2'
p1109
(dp1110
g3
S'Guptill'
p1111
sg5
S'no run'
p1112
sg7
S' Kumar'
p1113
sg9
S'\nmis-hit pull and mid-on drops it. It was short and Guptil goes for a front-foot pull. Very late on the shot there and Aaron was in no position to take it. He was diving to the right needlessly because the ball was coming straight at him  around shigh height  and with the balance lost  he shells it  </p>]'
p1114
ssS'9.3'
p1115
(dp1116
g3
S'Guptill'
p1117
sg5
S'no run'
p1118
sg7
S' Kumar'
p1119
sg9
S'\nfullish on off stump as he looks to turn it to midwicket  but gets a leading edge  </p>]'
p1120
ssS'34.4'
p1121
(dp1122
g3
S'Williamson'
p1123
sg5
S'2 runs'
p1124
sg7
S' Jadeja'
p1125
sg9
S'\nbit more flight as he drives to long-off. Jadeja himself races after the ball  but has to pull away as the man in the deep runs in  </p>]'
p1126
ssS'41.6'
p1127
(dp1128
g3
S'Taylor'
p1129
sg5
S'no run'
p1130
sg7
S' Kohli'
p1131
sg9
S'\nstrides forward and drives the full length ball back down the pitch. Kohli dives to his right to prevent the single  </p>]'
p1132
ssS'41.5'
p1133
(dp1134
g3
S'McCullum'
p1135
sg5
S'1 run'
p1136
sg7
S' Kohli'
p1137
sg9
S'\nfullish on and around off as he pushes it through the off side  </p>]'
p1138
ssS'41.4'
p1139
(dp1140
g3
S'McCullum'
p1141
sg5
S'no run'
p1142
sg7
S' Kohli'
p1143
sg9
S"\ntouch quicker and it moves in as well. Baz was shapeing to late cut it but there wasn't enough room and he had to bring down a straight bat  </p>]"
p1144
ssS'41.3'
p1145
(dp1146
g3
S'Taylor'
p1147
sg5
S'1 run'
p1148
sg7
S' Kohli'
p1149
sg9
S'\nbit more width on offer as he gets on the front foot and drives to deep cover  </p>]'
p1150
ssS'41.2'
p1151
(dp1152
g3
S'McCullum'
p1153
sg5
S'1 run'
p1154
sg7
S' Kohli'
p1155
sg9
S'\nfull and angled in on off stump as he gets a good stride forward and drills it to long-on  </p>]'
p1156
ssS'30.1'
p1157
(dp1158
g3
S'Williamson'
p1159
sg5
S'1 leg bye'
p1160
sg7
S' Jadeja'
p1161
sg9
S'\ngood length ball on the pads as he looks to whip it away behind square leg  </p>]'
p1162
ssS'30.6'
p1163
(dp1164
g3
S'Williamson'
p1165
sg5
g50
sg7
S' Jadeja'
p1166
sg9
S"\nand again  this time squarer and he's got a lot more bat on this. Even Jadeja's looking clueless as Williamson gets down on one knee and takes this from outside off as well  </p>]"
p1167
ssS'4.40'
p1168
(dp1169
g3
S'Ryder'
p1170
sg5
g455
sg7
S' Mohammed Shami'
p1171
sg9
S"\nloses his radar again  this one off a good length ball. Sprays it down the leg side as Ryder looks to tickle it away  doesn't connect.  </p>]"
p1172
ssS'44.2'
p1173
(dp1174
g3
S'Neesham'
p1175
sg5
S'no run'
p1176
sg7
S' Aaron'
p1177
sg9
S'\nback of a length and angled across the left-hander as he guides to point off the back foot  </p>]'
p1178
ssS'43.5'
p1179
(dp1180
g3
S'McCullum'
p1181
sg5
g110
sg7
S' Kohli'
p1182
sg9
S"\nslapped straight to cover! Charged down the track and was looking to beat the fielder inside the circle. Was making a bit of room for himself and may have ended up going too leg side as he doesn't get enough bat on it  </p>]"
p1183
ssS'28.1'
p1184
(dp1185
g3
S'Taylor'
p1186
sg5
S'1 run'
p1187
sg7
S' Jadeja'
p1188
sg9
S'\nbit of turn outside off as Taylor moves back and across and opens the face to short third man  </p>]'
p1189
ssS'28.2'
p1190
(dp1191
g3
S'Williamson'
p1192
sg5
S'no run'
p1193
sg7
S' Jadeja'
p1194
sg9
S'\nfullish on off stump as he steps forward to defend  </p>]'
p1195
ssS'28.3'
p1196
(dp1197
g3
S'Williamson'
p1198
sg5
g50
sg7
S' Jadeja'
p1199
sg9
S'\ncuts it and finds the gap behind point. Took it from the stumps as he made a bit of room and places it to the left of the man in the deep as well  </p>]'
p1200
ssS'28.4'
p1201
(dp1202
g3
S'Williamson'
p1203
sg5
S'no run'
p1204
sg7
S' Jadeja'
p1205
sg9
S'\nfull and fired in down the pads as Williamson looks to glance it down. Dhoni goes up in appeal as he takes it nicely  but it had come off the pad  </p>]'
p1206
ssS'28.5'
p1207
(dp1208
g3
S'Williamson'
p1209
sg5
S'1 run'
p1210
sg7
S' Jadeja'
p1211
sg9
S'\ntossed up just outside off as he drives down to long-off  </p>]'
p1212
ssS'7.3'
p1213
(dp1214
g3
S'Ryder'
p1215
sg5
S'no run'
p1216
sg7
S' Kumar'
p1217
sg9
S'\nfullish on and around off stump as Ryder defends it down the pitch  </p>]'
p1218
ssS'15.5'
p1219
(dp1220
g3
S'Taylor'
p1221
sg5
S'1 run'
p1222
sg7
S' Ashwin'
p1223
sg9
S'\nnudged to mid-on again and Taylor runs with the front foot push and makes it comfortably  despite the throw  </p>]'
p1224
ssS'19.2'
p1225
(dp1226
g3
S'Williamson'
p1227
sg5
S'1 run'
p1228
sg7
S' Ashwin'
p1229
sg9
S'\na little shorter  and pushed through quicker on leg stump as he clips it through midwicket off the back foot  </p>]'
p1230
ssS'38.2'
p1231
(dp1232
g3
S'Taylor'
p1233
sg5
S'2 runs'
p1234
sg7
S' Mohammed Shami'
p1235
sg9
S'\nedged and through to deep third man as this is shortish and outside off. Taylor was looking to drive on the up  </p>]'
p1236
ssS'31.6'
p1237
(dp1238
g3
S'Taylor'
p1239
sg5
S'1 run'
p1240
sg7
S' Kohli'
p1241
sg9
S'\nfullish and on middle and leg as he drives to long-on  </p>]'
p1242
ssS'38.4'
p1243
(dp1244
g3
S'Taylor'
p1245
sg5
S'no run'
p1246
sg7
S' Mohammed Shami'
p1247
sg9
S'\nslower short ball and it had a bit of room outside off too. Taylor was into position too early and tried to adjust his cut shot  but misses  </p>]'
p1248
ssS'31.4'
p1249
(dp1250
g3
S'Taylor'
p1251
sg5
S'no run'
p1252
sg7
S' Kohli'
p1253
sg9
S'\nshort and angled in again as Taylor cuts to point  </p>]'
p1254
ssS'31.5'
p1255
(dp1256
g3
S'Taylor'
p1257
sg5
S'no run'
p1258
sg7
S' Kohli'
p1259
sg9
S'\nopens the face as this comes in at him off a length. Point does better this time as he rushes forward and dives  </p>]'
p1260
ssS'31.2'
p1261
(dp1262
g3
S'Williamson'
p1263
sg5
S'no run'
p1264
sg7
S' Kohli'
p1265
sg9
S'\nlooks to hit this a little too hard and gets a bottom edge as this is on a length and wide of off  </p>]'
p1266
ssS'31.3'
p1267
(dp1268
g3
S'Williamson'
p1269
sg5
S'1 run'
p1270
sg7
S' Kohli'
p1271
sg9
S'\nfull and wide outside off as he drives through to deep cover  </p>]'
p1272
ssS'31.1'
p1273
(dp1274
g3
S'Taylor'
p1275
sg5
S'1 run'
p1276
sg7
S' Kohli'
p1277
sg9
S'\nlength ball on off stump as he steps towards leg and steers it in front of point  </p>]'
p1278
ssS'18.1'
p1279
(dp1280
g3
S'Taylor'
p1281
sg5
S'no run'
p1282
sg7
S' Aaron'
p1283
sg9
S'\n142kph  good length ball on off stump as Taylor is solidly behind it  </p>]'
p1284
ssS'18.3'
p1285
(dp1286
g3
S'Williamson'
p1287
sg5
S'no run'
p1288
sg7
S' Aaron'
p1289
sg9
S'\n147 kph  short and just outside off as Williamson gets on top of the bounce and defends int othe covers  </p>]'
p1290
ssS'18.2'
p1291
(dp1292
g3
S'Taylor'
p1293
sg5
S'1 run'
p1294
sg7
S' Aaron'
p1295
sg9
S'\n143kph  short and on the body as he jumps back in his crease and works it in front of square leg  </p>]'
p1296
ssS'18.5'
p1297
(dp1298
g3
S'Taylor'
p1299
sg5
S'no run'
p1300
sg7
S' Aaron'
p1301
sg9
S'\n147 kph  shortish and just outside off again as Taylor hops up and guides it to point  </p>]'
p1302
ssS'18.4'
p1303
(dp1304
g3
S'Williamson'
p1305
sg5
S'1 run'
p1306
sg7
S' Aaron'
p1307
sg9
S'\n143 kph  just short of a good length as he punches through the covers. Nicely balanced on the back foot there  </p>]'
p1308
ssS'18.6'
p1309
(dp1310
g3
S'Taylor'
p1311
sg5
S'no run'
p1312
sg7
S' Aaron'
p1313
sg9
S"\n140 kph  short on off stump as Taylor defends towards where short leg might have been. Though he's testing the middle of the pitch  he's not giving any room for the batsman to exploit. Looks like he's learned from the previous game  </p>]"
p1314
ssS'1.4'
p1315
(dp1316
g3
S'Guptill'
p1317
sg5
S'no run'
p1318
sg7
S' Kumar'
p1319
sg9
S'\n130 kph  classic away swinger to beat the outside edge. Lovely seam position as this is angled in on off stump to lure the batsman into a forward defensive  but the movement away is too good for him  </p>]'
p1320
ssS'1.5'
p1321
(dp1322
g3
S'Guptill'
p1323
sg5
S'no run'
p1324
sg7
S' Kumar'
p1325
sg9
S'\nfullish on off stump as he presses forward again and gets it off the outside half of the bat to the covers  </p>]'
p1326
ssS'1.6'
p1327
(dp1328
g3
S'Guptill'
p1329
sg5
S'1 run'
p1330
sg7
S' Kumar'
p1331
sg9
S"\nleading edge this time as he looks to nudge into midwicket  but Bhuvi's away swing ensures this fullish delivery on the stumps squirts away in front of point  </p>]"
p1332
ssS'1.1'
p1333
(dp1334
g3
S'Ryder'
p1335
sg5
S'no run'
p1336
sg7
S' Kumar'
p1337
sg9
S'\ntight line on middle and leg as Ryder is half-forward and defends towards midwicket  </p>]'
p1338
ssS'1.2'
p1339
(dp1340
g3
S'Ryder'
p1341
sg5
S'no run'
p1342
sg7
S' Kumar'
p1343
sg9
S'\n131kph  fullish and in the corridor. Curls away from the bat  Ryder is content to leave it alone  </p>]'
p1344
ssS'1.3'
p1345
(dp1346
g3
S'Ryder'
p1347
sg5
S'1 run'
p1348
sg7
S' Kumar'
p1349
sg9
S'\nlength ball  strays on the pads this time and Ryder has no problems clipping it to long leg and gets of the mark  </p>]'
p1350
ssS'0.1'
p1351
(dp1352
g3
S'Guptill'
p1353
sg5
S'no run'
p1354
sg7
S' Mohammed Shami'
p1355
sg9
S'\n121 kph  short one outside off  Guptill sways away  </p>]'
p1356
ssS'30.2'
p1357
(dp1358
g3
S'Taylor'
p1359
sg5
S'1 run'
p1360
sg7
S' Jadeja'
p1361
sg9
S"\nthat's a double whammy. Taylor's fifty and the hundred partnership as he drives this tossed up delivery on middle to long-on  </p>]"
p1362
ssS'0.3'
p1363
(dp1364
g3
S'Guptill'
p1365
sg5
S'no run'
p1366
sg7
S' Mohammed Shami'
p1367
sg9
S'\n139kph  back of a length and angled in at the body as Guptill works it off his hips to midwicket  </p>]'
p1368
ssS'0.2'
p1369
(dp1370
g3
S'Guptill'
p1371
sg5
S'no run'
p1372
sg7
S' Mohammed Shami'
p1373
sg9
S'\n136kph  good length ball on middle and leg as Guptill defends to mid-on  </p>]'
p1374
ssS'0.5'
p1375
(dp1376
g3
S'Guptill'
p1377
sg5
S'no run'
p1378
sg7
S' Mohammed Shami'
p1379
sg9
S'\n140kph  another short one  this right over middle as Guptill sinks low under it. Bit of swing away after it passes the batsman and Dhoni does well as he had to change direction after moving down the leg side  </p>]'
p1380
ssS'0.4'
p1381
(dp1382
g3
S'Guptill'
p1383
sg5
S'no run'
p1384
sg7
S' Mohammed Shami'
p1385
sg9
S'\n137kph  inside edges this fullish delivery outside off. Deflects off his pads and goes towards point  </p>]'
p1386
ssS'30.5'
p1387
(dp1388
g3
S'Williamson'
p1389
sg5
g50
sg7
S' Jadeja'
p1390
sg9
S'\njust enough flight and he sweeps it from outside off and gets well fine of the man at short third man. Lovely footwork and timing  </p>]'
p1391
ssS'0.6'
p1392
(dp1393
g3
S'Guptill'
p1394
sg5
S'no run'
p1395
sg7
S' Mohammed Shami'
p1396
sg9
S"\n139kph  back of a length and in the channel as Guptill stays in his crease and pushes it into the covers and that's a maiden  </p>]"
p1397
ssS'38.3'
p1398
(dp1399
g3
S'Taylor'
p1400
sg5
S'no run'
p1401
sg7
S' Mohammed Shami'
p1402
sg9
S'\ndrilled into the covers but Rohit does well. Fullish and just outside off as he comes forward and unleashes a powerful drive  </p>]'
p1403
ssS'36.5'
p1404
(dp1405
g3
S'Williamson'
p1406
sg5
g50
sg7
S' Kumar'
p1407
sg9
S"\nramped it right over the keeper's head for another boundary. It was dug in very short and Williamson got in line  swayed away and helps it along  </p>]"
p1408
ssS'38.1'
p1409
(dp1410
g3
S'Taylor'
p1411
sg5
g50
sg7
S' Mohammed Shami'
p1412
sg9
S'\nback of a length and down the pads as Taylor glances it fine and picks up another simple boundary  </p>]'
p1413
ssS'38.6'
p1414
(dp1415
g3
S'McCullum'
p1416
sg5
S'1 leg bye'
p1417
sg7
S' Mohammed Shami'
p1418
sg9
S"\noff the thigh pad this time as it is short of a length and tailing down leg. Looks to flick it away  but can't connect  </p>]"
p1419
ssS'38.5'
p1420
(dp1421
g3
S'Taylor'
p1422
sg5
S'1 run'
p1423
sg7
S' Mohammed Shami'
p1424
sg9
S'\nangled in on middle as he pushes into the covers with soft hands for a single  </p>]'
p1425
ssS'36.4'
p1426
(dp1427
g3
S'Taylor'
p1428
sg5
S'1 run'
p1429
sg7
S' Kumar'
p1430
sg9
S'\nwhipped away off his hips through square leg as this is a touch short and down leg  </p>]'
p1431
ssS'13.6'
p1432
(dp1433
g3
S'Taylor'
p1434
sg5
S'1 run'
p1435
sg7
S' Ashwin'
p1436
sg9
S'\nspins the other way again as Taylor looks to defend down the ground and gets a thick outside edge past slip  </p>]'
p1437
ssS'13.4'
p1438
(dp1439
g3
S'Taylor'
p1440
sg5
S'no run'
p1441
sg7
S' Ashwin'
p1442
sg9
S'\nkeeps it tight on middle and off as Taylor keeps it out  </p>]'
p1443
ssS'13.5'
p1444
(dp1445
g3
S'Taylor'
p1446
sg5
S'no run'
p1447
sg7
S' Ashwin'
p1448
sg9
S'\npushes this one across the right-hander who was defending down the wrong line. Beaten outside off  </p>]'
p1449
ssS'13.2'
p1450
(dp1451
g3
S'Taylor'
p1452
sg5
S'no run'
p1453
sg7
S' Ashwin'
p1454
sg9
S'\nflighted on off stump as he moves around the wicket and clips it down to mid-on  </p>]'
p1455
ssS'13.3'
p1456
(dp1457
g3
S'Taylor'
p1458
sg5
S'no run'
p1459
sg7
S' Ashwin'
p1460
sg9
S'\nfull  if a little flat on leg stump as he nudges to midwicket  </p>]'
p1461
ssS'13.1'
p1462
(dp1463
g3
S'Williamson'
p1464
sg5
S'1 run'
p1465
sg7
S' Ashwin'
p1466
sg9
S'\non a good length as he clips it behind square leg  </p>]'
p1467
ssS'4.5'
p1468
(dp1469
g3
S'Ryder'
p1470
sg5
S'no run'
p1471
sg7
S' Mohammed Shami'
p1472
sg9
S'\nwonderful timing from Ryder. This was back of a length and angled across him as Ryder stays put on the back foot and slaps it straight to cover  </p>]'
p1473
ssS'4.4'
p1474
(dp1475
g3
S'Ryder'
p1476
sg5
S'no run'
p1477
sg7
S' Mohammed Shami'
p1478
sg9
S'\n139kph  back of a length on and around off stump. Ryder is a little square up as he dabs it towards cover point  </p>]'
p1479
ssS'5.2'
p1480
(dp1481
g3
S'Ryder'
p1482
sg5
g38
sg7
S' Kumar'
p1483
sg9
S"\nthere's the pressure release. A swat over midwicket and it was not too much wrong with the ball  good length on middle and leg. Great timing as he bent his knee and almost swept it away. Two orange shirts waiting  but it's taken by someone else  with two hands  </p>]"
p1484
ssS'4.6'
p1485
(dp1486
g3
S'Ryder'
p1487
sg5
S'1 run'
p1488
sg7
S' Mohammed Shami'
p1489
sg9
S'\nedged and it flies square of the man at gully. Good length ball probing in that off stump channel as Ryder pokes with an open face.  </p>]'
p1490
ssS'4.1'
p1491
(dp1492
g3
S'Ryder'
p1493
sg5
S'no run'
p1494
sg7
S' Mohammed Shami'
p1495
sg9
S'\n140kph  just short of a good length and it seams away after pitching. Started just a touch outside off though and Ryder leaves with the angle. Good  quick delivery  </p>]'
p1496
ssS'5.5'
p1497
(dp1498
g3
S'Guptill'
p1499
sg5
S'no run'
p1500
sg7
S' Kumar'
p1501
sg9
S'\nfull on off stump as Guptill leans forward and turns it to midwicket  </p>]'
p1502
ssS'4.3'
p1503
(dp1504
g3
S'Ryder'
p1505
sg5
S'no run'
p1506
sg7
S' Mohammed Shami'
p1507
sg9
S'\npunched into the covers as this is shorter with a bit of room. Right of the middle as he was balanced on the back foot  </p>]'
p1508
ssS'4.2'
p1509
(dp1510
g3
S'Ryder'
p1511
sg5
S'no run'
p1512
sg7
S' Mohammed Shami'
p1513
sg9
S"\n140 kph  another Ryder special  though he wouldn't want to see this on the replay. Has a bit of a waft outside off as this is on a good length and angled across him. No footwork and beaten  </p>]"
p1514
ssS'11.4'
p1515
(dp1516
g3
S'Guptill'
p1517
sg5
S'1 run'
p1518
sg7
S' Kumar'
p1519
sg9
S'\ngood length ball on middle as he clips it wide of mid-on and rushes through for a quick single.  </p>]'
p1520
ssS'11.5'
p1521
(dp1522
g3
S'Williamson'
p1523
sg5
S'no run'
p1524
sg7
S' Kumar'
p1525
sg9
S"\nbouncer outside off stump to Williamson  who doesn't bother with it. Went around head high  </p>]"
p1526
ssS'11.6'
p1527
(dp1528
g3
S'Williamson'
p1529
sg5
S'no run'
p1530
sg7
S' Kumar'
p1531
sg9
S'\nfull and tails down the pads as Williamson goes forward and drives to mid-on  </p>]'
p1532
ssS'11.1'
p1533
(dp1534
g3
S'Guptill'
p1535
sg5
S'no run'
p1536
sg7
S' Kumar'
p1537
sg9
S'\n132 kph  angles it in which draws Guptill forward to block  but the ball curls away and beats him. Terrific delivery  </p>]'
p1538
ssS'11.2'
p1539
(dp1540
g3
S'Guptill'
p1541
sg5
S'no run'
p1542
sg7
S' Kumar'
p1543
sg9
S'\nfullish and closer to off stump as Guptil this time covers the away swing and blocks off the front foot  </p>]'
p1544
ssS'11.3'
p1545
(dp1546
g3
S'Guptill'
p1547
sg5
g50
sg7
S' Kumar'
p1548
sg9
S"\nlaunches it straight over the head of the bowler. Another fullish delivery on off stump hit through the line because of the power he has. Not perfectly timed  but he'll feel better after that shot  </p>]"
p1549
ssS'17.2'
p1550
(dp1551
g3
S'Williamson'
p1552
sg5
S'2 runs'
p1553
sg7
S' Ashwin'
p1554
sg9
S'\nworks it away through midwicket despite Ashwin pushing the ball full and across Williamson  </p>]'
p1555
ssS'17.3'
p1556
(dp1557
g3
S'Williamson'
p1558
sg5
S'no run'
p1559
sg7
S' Ashwin'
p1560
sg9
S'\nchips down the track and drives the tossed up delivery on leg stump to mid-on  </p>]'
p1561
ssS'17.1'
p1562
(dp1563
g3
S'Williamson'
p1564
sg5
S'no run'
p1565
sg7
S' Ashwin'
p1566
sg9
S'\nmoves down the track as he defends this flatter one angled across him  </p>]'
p1567
ssS'17.6'
p1568
(dp1569
g3
S'Williamson'
p1570
sg5
g50
sg7
S' Ashwin'
p1571
sg9
S"\nthis time he's struck it more cleanly. Skipped down the track and though he wasn't to the pitch of it  swung through. Was always looking to use a straight bat and he reaps good benefits from it  </p>]"
p1572
ssS'36.3'
p1573
(dp1574
g3
S'Taylor'
p1575
sg5
g50
sg7
S' Kumar'
p1576
sg9
S"\nthere's that slog over midwicket that the old Taylor was famous for. Good length ball on off stump and he went forward and smacked it over the infield  </p>]"
p1577
ssS'17.4'
p1578
(dp1579
g3
S'Williamson'
p1580
sg5
S'no run'
p1581
sg7
S' Ashwin'
p1582
sg9
S'\nadvances again as Ashwin shortens his length on leg stump and keeps him to a defensive push  </p>]'
p1583
ssS'17.5'
p1584
(dp1585
g3
S'Williamson'
p1586
sg5
S'2 runs'
p1587
sg7
S' Ashwin'
p1588
sg9
S'\nflighted on leg stump as Williamson lofts him over mid-on. But there is protection in the deep as well  </p>]'
p1589
ssS'47.1'
p1590
(dp1591
g3
S'Neesham'
p1592
sg5
S'1 run'
p1593
sg7
S' Mohammed Shami'
p1594
sg9
S"\n138 kph  good length ball but he's stuck on the back foot as he looked to pull. Gets a big inside edge and goes to the other end  </p>]"
p1595
ssS'47.3'
p1596
(dp1597
g3
S'Neesham'
p1598
sg5
g38
sg7
S' Mohammed Shami'
p1599
sg9
S'\ngets under this and sends it into the crowd over long-on. It was in the slot as Shami tries another slower ball. The bat did turn in his hand he swung hard and benefits  </p>]'
p1600
ssS'36.2'
p1601
(dp1602
g3
S'Taylor'
p1603
sg5
S'no run'
p1604
sg7
S' Kumar'
p1605
sg9
S'\nfalls just short of the bowler. Fullish on off and Taylor was into his defensive push a little early and the ball nearly lobbed back to Bhuvi.  </p>]'
p1606
ssS'47.5'
p1607
(dp1608
g3
S'Taylor'
p1609
sg5
g50
sg7
S' Mohammed Shami'
p1610
sg9
S'\nconsecutive hundreds for Taylor! It was short and on middle  he rocked back and pulled well in front of midwicket and collects a lovely boundary. Wellington stands up to applaud  </p>]'
p1611
ssS'47.2'
p1612
(dp1613
g3
S'Taylor'
p1614
sg5
S'1 leg bye'
p1615
sg7
S' Mohammed Shami'
p1616
sg9
S'\non a length as this is the slower ball  Offcutter on the pads as Taylor looks to work it behind square leg  but the ball dribbles away off his pads  </p>]'
p1617
ssS'47.6'
p1618
(dp1619
g3
S'Taylor'
p1620
sg5
g110
sg7
S' Mohammed Shami'
p1621
sg9
S"\nand finally India hold on to a catch. Dhawan at deep midwicket does a very good job as he picks up a skier. Slower ball outside off stump as he goes down on one knee and looks for that slog sweep again. He's mis-hit it though and Dhawan moves to his left and dives to pick up a good catch.  </p>]"
p1622
ssS'46.4'
p1623
(dp1624
g3
S'Taylor'
p1625
sg5
S'1 run'
p1626
sg7
S' Aaron'
p1627
sg9
S'\nvery full on middle as Taylor is forward and pushes to long-on  </p>]'
p1628
ssS'46.5'
p1629
(dp1630
g3
S'Neesham'
p1631
sg5
S'2 runs'
p1632
sg7
S' Aaron'
p1633
sg9
S'\nfull and wide outside off  Neesham makes no effort to move his feet as he throws his hands at it. Gets a thick inside edge past the keeper  </p>]'
p1634
ssS'46.6'
p1635
(dp1636
g3
S'Neesham'
p1637
sg5
S'1 leg bye'
p1638
sg7
S' Aaron'
p1639
sg9
S'\n147kph  pitched right up on leg stump as he was looking to clip it through square leg. Too slow on the shot as it runs away off his pads  </p>]'
p1640
ssS'46.1'
p1641
(dp1642
g3
S'Taylor'
p1643
sg5
S'no run'
p1644
sg7
S' Aaron'
p1645
sg9
S'\nright up there on middle and leg as he clips to midwicket.  </p>]'
p1646
ssS'46.2'
p1647
(dp1648
g3
S'Taylor'
p1649
sg5
S'1 run'
p1650
sg7
S' Aaron'
p1651
sg9
S"\n147kph  a bit overpitched on off stump as he drives through extra cover. Taylor wanted a couple  but it's not there  </p>]"
p1652
ssS'5.1'
p1653
(dp1654
g3
S'Ryder'
p1655
sg5
S'no run'
p1656
sg7
S' Kumar'
p1657
sg9
S'\ngood length ball on off stump as Ryder can only defend down the pitch  </p>]'
p1658
ssS'5.3'
p1659
(dp1660
g3
S'Ryder'
p1661
sg5
S'no run'
p1662
sg7
S' Kumar'
p1663
sg9
S'\nlength ball on off stump as he blocks solidly  </p>]'
p1664
ssS'41.1'
p1665
(dp1666
g3
S'Taylor'
p1667
sg5
S'1 run'
p1668
sg7
S' Kohli'
p1669
sg9
S'\ngood length ball just outside off as he cuts to deep point  </p>]'
p1670
ssS'29.5'
p1671
(dp1672
g3
S'Williamson'
p1673
sg5
S'1 run'
p1674
sg7
S' Kohli'
p1675
sg9
S'\ngoes down with this full ball wide of off stump and opens the face to pick up a single to short third man  </p>]'
p1676
ssS'5.4'
p1677
(dp1678
g3
S'Ryder'
p1679
sg5
S'1 run'
p1680
sg7
S' Kumar'
p1681
sg9
S"\nleans into a gorgeous drive through the covers. Dhawan is the man as he runs and dives to his left  but isn't able to cut the single. It was fullish with a bit of width outside off  </p>]"
p1682
ssS'29.6'
p1683
(dp1684
g3
S'Taylor'
p1685
sg5
S'no run'
p1686
sg7
S' Kohli'
p1687
sg9
S'\ncuts but it goes straight to point this time. Too short from Kohli again  </p>]'
p1688
ssS'14.20'
p1689
(dp1690
g3
S'Taylor'
p1691
sg5
g455
sg7
S' Aaron'
p1692
sg9
S"\n143kph  fires it full and down the leg side. Umpire won't let him get away with that  </p>]"
p1693
ssS'29.3'
p1694
(dp1695
g3
S'Taylor'
p1696
sg5
S'1 run'
p1697
sg7
S' Kohli'
p1698
sg9
S'\nback of a length and angled in on off stump as he dabs it to backward point for a quick single  </p>]'
p1699
ssS'29.2'
p1700
(dp1701
g3
S'Williamson'
p1702
sg5
S'1 run'
p1703
sg7
S' Kohli'
p1704
sg9
S"\nthere's his fifth fifty in five matches! Full on middle stump and he calmly pushes it to long-on and raises his bat. Becomes the second player to do that in a five-match series  </p>]"
p1705
ssS'15.1'
p1706
(dp1707
g3
S'Williamson'
p1708
sg5
S'1 run'
p1709
sg7
S' Ashwin'
p1710
sg9
S'\naround the wicket  chips down the track as he reaches the pitch of this tossed up offspinner between midwicket and mid-on  </p>]'
p1711
ssS'15.2'
p1712
(dp1713
g3
S'Taylor'
p1714
sg5
S'1 run'
p1715
sg7
S' Ashwin'
p1716
sg9
S'\npierces the same gap  only this is a different batsman and he plays from the crease  </p>]'
p1717
ssS'15.3'
p1718
(dp1719
g3
S'Williamson'
p1720
sg5
S'1 run'
p1721
sg7
S' Ashwin'
p1722
sg9
S'\nmoves down the track as he flights it outside off. Williamson opens the face as he carves it through point  </p>]'
p1723
ssS'15.4'
p1724
(dp1725
g3
S'Taylor'
p1726
sg5
S'no run'
p1727
sg7
S' Ashwin'
p1728
sg9
S"\ntossed up on middle and leg as he shuffles across and pushes to mid-on. Shawan slips but they don't take the single as Ashwin runs to help  </p>]"
p1729
ssS'5.6'
p1730
(dp1731
g3
S'Guptill'
p1732
sg5
S'no run'
p1733
sg7
S' Kumar'
p1734
sg9
S'\n132kph  oh  this time he brings the ball in off a good length. But Guptill judges it to be outside off and leaves it alone  </p>]'
p1735
ssS'15.6'
p1736
(dp1737
g3
S'Williamson'
p1738
sg5
S'1 run'
p1739
sg7
S' Ashwin'
p1740
sg9
S'\ntossed up outside off as he pushes into the covers and picks up another good single  </p>]'
p1741
ssS'44.3'
p1742
(dp1743
g3
S'Neesham'
p1744
sg5
S'1 run'
p1745
sg7
S' Aaron'
p1746
sg9
S"\n143kph  shortish on middle as Neesham goes back and pulls through square leg. Didn't get all of it though  </p>]"
p1747
ssS'49.4'
p1748
(dp1749
g3
S'Neesham'
p1750
sg5
S'1 run'
p1751
sg7
S' Mohammed Shami'
p1752
sg9
S'\nfull on middle and leg as he clips to deep midwicket all along the ground  </p>]'
p1753
ssS'48.2'
p1754
(dp1755
g3
S'Neesham'
p1756
sg5
S'1 run'
p1757
sg7
S' Kumar'
p1758
sg9
S'\nfull on middle and leg as he looks to power it straight down the ground  but gets an inside edge onto pad  </p>]'
p1759
ssS'48.3'
p1760
(dp1761
g3
S'Ronchi'
p1762
sg5
g50
sg7
S' Kumar'
p1763
sg9
S'\nlow full toss on off stump as he stretches forward and hits it dead straight for a boundary. Right off the middle  </p>]'
p1764
ssS'48.1'
p1765
(dp1766
g3
S'Ronchi'
p1767
sg5
S'1 run'
p1768
sg7
S' Kumar'
p1769
sg9
S'\nvery full outside off as he comes forward and gets it down to to long-on  </p>]'
p1770
ssS'48.6'
p1771
(dp1772
g3
S'Neesham'
p1773
sg5
S'1 run'
p1774
sg7
S' Kumar'
p1775
sg9
S'\nmoves his front foot leg side as this is in the blockhole as well  bit of width allows Neesham to punch to long-off  </p>]'
p1776
ssS'48.4'
p1777
(dp1778
g3
S'Ronchi'
p1779
sg5
g50
sg7
S' Kumar'
p1780
sg9
S"\nfull and just outside off but Ronchi's timed this brilliantly. Just missed the yorker and it had a bit of room outside off as he slaps it down to the long-off boundary  </p>]"
p1781
ssS'48.5'
p1782
(dp1783
g3
S'Ronchi'
p1784
sg5
S'1 run'
p1785
sg7
S' Kumar'
p1786
sg9
S'\ngets the yorker in this time as Ronchi can only dig it past the bowler on the off side  </p>]'
p1787
ssS'47.4'
p1788
(dp1789
g3
S'Neesham'
p1790
sg5
S'1 run'
p1791
sg7
S' Mohammed Shami'
p1792
sg9
S'\nyorker on middle and off  good reply as Neesham keeps it out. Good reply from the bowler  </p>]'
p1793
ss.