(dp0
S'6.40'
p1
(dp2
S'to'
p3
S'Guptill'
p4
sS'what'
p5
S'1 wide'
p6
sS'from'
p7
S' Kumar'
p8
sS'why'
p9
S'\nsplays this one well down the leg side  with Mr. Bowden calling a wide  </p>]'
p10
ssS'33.5'
p11
(dp12
g3
S'Anderson'
p13
sg5
S'OUT'
p14
sg7
S' Ashwin'
p15
sg9
S'\nand Ashwin takes the big wicket of Anderson as he looks to cut away the bowler to the off side  but is cramped for space as this one hurries onto his stumps to have him bowled. Kohli is completely over the moon at this one as he pumps whatever he can to show off his pleasure  </p>]'
p16
ssS'35.2'
p17
(dp18
g3
S'Guptill'
p19
sg5
S'no run'
p20
sg7
S' Ashwin'
p21
sg9
S'\ndirected right back to the same fielder as Guptill looks for that elusive single  </p>]'
p22
ssS'35.3'
p23
(dp24
g3
S'Guptill'
p25
sg5
S'no run'
p26
sg7
S' Ashwin'
p27
sg9
S'\nthis time defended back to the bowler  </p>]'
p28
ssS'35.1'
p29
(dp30
g3
S'Guptill'
p31
sg5
S'no run'
p32
sg7
S' Ashwin'
p33
sg9
S"\ntries a simple push to the leg side  but can't get the single despite the misfield from silly mid-on  </p>]"
p34
ssS'35.6'
p35
(dp36
g3
S'Guptill'
p37
sg5
S'1 run'
p38
sg7
S' Ashwin'
p39
sg9
S'\nand on the final ball of the over  Guptill is able to find the run with a push to long-off to register a <b>5th ODI century</b> </p>]'
p40
ssS'35.4'
p41
(dp42
g3
S'Guptill'
p43
sg5
S'no run'
p44
sg7
S' Ashwin'
p45
sg9
S'\nlooks to whip this away leg side  but midwicket is all over this like white on rice  </p>]'
p46
ssS'35.5'
p47
(dp48
g3
S'Guptill'
p49
sg5
S'no run'
p50
sg7
S' Ashwin'
p51
sg9
S'\ndriven on the up  but straight to short cover  </p>]'
p52
ssS'7.2'
p53
(dp54
g3
S'Guptill'
p55
sg5
S'1 run'
p56
sg7
S' Aaron'
p57
sg9
S'\nchops this one  but luckily away from the stumps  as this one travels towards fine leg  </p>]'
p58
ssS'6.6'
p59
(dp60
g3
S'Williamson'
p61
sg5
S'no run'
p62
sg7
S' Kumar'
p63
sg9
S'\ntries to cut away this length delivery outside off  but fails to get bat on ball  </p>]'
p64
ssS'12.1'
p65
(dp66
g3
S'Guptill'
p67
sg5
S'no run'
p68
sg7
S' Jadeja'
p69
sg9
S'\non the front foot and defended to the off side  </p>]'
p70
ssS'7.1'
p71
(dp72
g3
S'Guptill'
p73
sg5
S'no run'
p74
sg7
S' Aaron'
p75
sg9
S'\n138 kph  begins with an away swinger outside off which Guptill tries to cut away  </p>]'
p76
ssS'6.3'
p77
(dp78
g3
S'Guptill'
p79
sg5
S'no run'
p80
sg7
S' Kumar'
p81
sg9
S"\nbeats the outside edge of guptill's bat as this one tails away at the last moment outside off  </p>]"
p82
ssS'12.6'
p83
(dp84
g3
S'Williamson'
p85
sg5
S'2 runs'
p86
sg7
S' Jadeja'
p87
sg9
S'\ncuts this one through to third man  with Ashwin trying his damndest to get to it  and in the end succeeds  </p>]'
p88
ssS'6.1'
p89
(dp90
g3
S'Guptill'
p91
sg5
S'no run'
p92
sg7
S' Kumar'
p93
sg9
S'\nthis one angling in from outside off as Guptill looks to turn this away to the leg side  </p>]'
p94
ssS'12.4'
p95
(dp96
g3
S'Guptill'
p97
sg5
S'no run'
p98
sg7
S' Jadeja'
p99
sg9
S'\nprods forward to defend this one  </p>]'
p100
ssS'37.1'
p101
(dp102
g3
S'Taylor'
p103
sg5
S'1 run'
p104
sg7
S' Jadeja'
p105
sg9
S'\nable to play this with soft hands to the off side for a single  </p>]'
p106
ssS'37.2'
p107
(dp108
g3
S'Guptill'
p109
sg5
g14
sg7
S' Jadeja'
p110
sg9
S"\nand Guptill's fine innings comes to an end as he goes for the slog-sweep  but finds Rahane in the deep who takes a good catch at midwicket  </p>]"
p111
ssS'37.3'
p112
(dp113
g3
S'Taylor'
p114
sg5
S'no run'
p115
sg7
S' Jadeja'
p116
sg9
S'\nable to get a four between the keeper and short third man  </p>]'
p117
ssS'37.4'
p118
(dp119
g3
S'Taylor'
p120
sg5
S'4 run'
p121
sg7
S' Jadeja'
p122
sg9
S"\npushed to the leg side by Taylor  but can't pinch a run  </p>]"
p123
ssS'37.5'
p124
(dp125
g3
S'Taylor'
p126
sg5
S'no run'
p127
sg7
S' Jadeja'
p128
sg9
S'\nfull on middle and leg which is pushed down to long-on for one  </p>]'
p129
ssS'37.6'
p130
(dp131
g3
S'Taylor'
p132
sg5
S'1 run  </p>]'
p133
sg7
S' Jadeja'
p134
sg9
S''
p135
ssS'42.3'
p136
(dp137
g3
S'Ronchi'
p138
sg5
S'1 run'
p139
sg7
S' Mohammed Shami'
p140
sg9
S'\npushed down the ground for a single  </p>]'
p141
ssS'10.1'
p142
(dp143
g3
S'Guptill'
p144
sg5
S'no run'
p145
sg7
S' Jadeja'
p146
sg9
S'\npresses forward to defend this first one from Jadeja  </p>]'
p147
ssS'10.3'
p148
(dp149
g3
S'Williamson'
p150
sg5
S'no run'
p151
sg7
S' Jadeja'
p152
sg9
S'\ngets onto the back foot to punch this away through the off side  but finds short cover  </p>]'
p153
ssS'10.2'
p154
(dp155
g3
S'Guptill'
p156
sg5
S'1 run'
p157
sg7
S' Jadeja'
p158
sg9
S'\nplants his foot as this is worked away to the off side for one  </p>]'
p159
ssS'10.5'
p160
(dp161
g3
S'Guptill'
p162
sg5
S'1 run'
p163
sg7
S' Jadeja'
p164
sg9
S'\nplayed off the back foot down to long-on for a single  </p>]'
p165
ssS'10.4'
p166
(dp167
g3
S'Williamson'
p168
sg5
S'1 run'
p169
sg7
S' Jadeja'
p170
sg9
S'\nthis time looks for a quick single to the leg side  and is able to make it in time before the throw  </p>]'
p171
ssS'10.6'
p172
(dp173
g3
S'Williamson'
p174
sg5
S'1 run'
p175
sg7
S' Jadeja'
p176
sg9
S'\nthis time is able to pierce the gap through the covers with a well-crafted back foot punch  </p>]'
p177
ssS'43.1'
p178
(dp179
g3
S'Ronchi'
p180
sg5
S'1 run'
p181
sg7
S' Jadeja'
p182
sg9
S'\ndriven down to long-on for a single  </p>]'
p183
ssS'33.3'
p184
(dp185
g3
S'Anderson'
p186
sg5
S'1 run'
p187
sg7
S' Ashwin'
p188
sg9
S'\ngets deep in his crease this time before pulling this away to the man at deep square leg  </p>]'
p189
ssS'44.6'
p190
(dp191
g3
S'Southee'
p192
sg5
S'1 run'
p193
sg7
S' Kumar'
p194
sg9
S'\nclipped off the pads behind square on the leg side  </p>]'
p195
ssS'16.6'
p196
(dp197
g3
S'Guptill'
p198
sg5
S'no run'
p199
sg7
S' Jadeja'
p200
sg9
S'\nonce again attempts to dab this past third man  </p>]'
p201
ssS'16.5'
p202
(dp203
g3
S'Williamson'
p204
sg5
S'1 run'
p205
sg7
S' Jadeja'
p206
sg9
S'\ndefended to the off side and is able to sneak in a single  </p>]'
p207
ssS'16.4'
p208
(dp209
g3
S'Williamson'
p210
sg5
S'no run'
p211
sg7
S' Jadeja'
p212
sg9
S'\ndirected away to silly mid-on. Run rate has also moved under 5  which is quite an achievement considering the blazing start NZ had made  </p>]'
p213
ssS'16.3'
p214
(dp215
g3
S'Williamson'
p216
sg5
S'no run'
p217
sg7
S' Jadeja'
p218
sg9
S'\ntries to run this one to third man  but the fielder is in to stop this one from giving up a single  </p>]'
p219
ssS'16.2'
p220
(dp221
g3
S'Guptill'
p222
sg5
S'1 run'
p223
sg7
S' Jadeja'
p224
sg9
S'\ndabbed down to long-on for one  </p>]'
p225
ssS'16.1'
p226
(dp227
g3
S'Williamson'
p228
sg5
S'1 run'
p229
sg7
S' Jadeja'
p230
sg9
S'\nplayed down to mid-on for a quick single  </p>]'
p231
ssS'44.1'
p232
(dp233
g3
S'McClenaghan'
p234
sg5
S'no run'
p235
sg7
S' Kumar'
p236
sg9
S"\ndabs this one towards backward point  but can't steal the single  </p>]"
p237
ssS'43.2'
p238
(dp239
g3
S'McCullum'
p240
sg5
S'1 run'
p241
sg7
S' Jadeja'
p242
sg9
S'\nthis time adopts the reverse sweep as he looks to get this past short third man  </p>]'
p243
ssS'40.60'
p244
(dp245
g3
S'Ronchi'
p246
sg5
g6
sg7
S' Aaron'
p247
sg9
S'\nwide heading down the leg side as the umpire gives the signal  </p>]'
p248
ssS'43.4'
p249
(dp250
g3
S'McCullum'
p251
sg5
S'no run'
p252
sg7
S' Jadeja'
p253
sg9
S'\nends up defending this one tentatively back to the bowler  </p>]'
p254
ssS'14.4'
p255
(dp256
g3
S'Williamson'
p257
sg5
S'1 run'
p258
sg7
S' Jadeja'
p259
sg9
S'\nadvances down the track before lofting Jadeja towards long-off  but this one falls short  </p>]'
p260
ssS'45.3'
p261
(dp262
g3
S'Southee'
p263
sg5
S'no run'
p264
sg7
S' Mohammed Shami'
p265
sg9
S'\ngoes for the big swing and a mass as the keeper collects from behind  </p>]'
p266
ssS'45.2'
p267
(dp268
g3
S'Southee'
p269
sg5
S'no run'
p270
sg7
S' Mohammed Shami'
p271
sg9
S'\nSouthee negotiates this latest offering to the off side  </p>]'
p272
ssS'45.1'
p273
(dp274
g3
S'Southee'
p275
sg5
S'no run'
p276
sg7
S' Mohammed Shami'
p277
sg9
S'\ntests him with bounceer as Southee swiels to avoid getting hurt  </p>]'
p278
ssS'45.6'
p279
(dp280
g3
S'Southee'
p281
sg5
S'2 runs'
p282
sg7
S' Mohammed Shami'
p283
sg9
S'\nfuller this time as McClenaghan goes for the lofted flick through the area  </p>]'
p284
ssS'45.5'
p285
(dp286
g3
S'Southee'
p287
sg5
S'no run'
p288
sg7
S' Mohammed Shami'
p289
sg9
S'\nonce again short as Southee is late on this one  </p>]'
p290
ssS'45.4'
p291
(dp292
g3
S'Southee'
p293
sg5
S'no run'
p294
sg7
S' Mohammed Shami'
p295
sg9
S'\nanother short one which has Southee inside-edging onto his pads while attempting a pull  </p>]'
p296
ssS'26.6'
p297
(dp298
g3
S'Guptill'
p299
sg5
g121
sg7
S' Aaron'
p300
sg9
S'\ndecides to go up and over to this shorter one from Aaron as he directs this towards extra-cover  with the ball beating an incoming sweeper cover to the boundary  </p>]'
p301
ssS'26.4'
p302
(dp303
g3
S'Guptill'
p304
sg5
S'1 run'
p305
sg7
S' Aaron'
p306
sg9
S'\nlength on the pads which is helped down to long-on  </p>]'
p307
ssS'26.5'
p308
(dp309
g3
S'Williamson'
p310
sg5
S'1 run'
p311
sg7
S' Aaron'
p312
sg9
S'\nplays this one with soft hands to the leg side  </p>]'
p313
ssS'26.2'
p314
(dp315
g3
S'Guptill'
p316
sg5
S'no run'
p317
sg7
S' Aaron'
p318
sg9
S'\ndrives this one quite loftily in the air towards extra-cover  </p>]'
p319
ssS'26.3'
p320
(dp321
g3
S'Guptill'
p322
sg5
g121
sg7
S' Aaron'
p323
sg9
S'\nplays an elegant lofted clip through square leg which races to the boundary  </p>]'
p324
ssS'26.1'
p325
(dp326
g3
S'Williamson'
p327
sg5
S'1 run'
p328
sg7
S' Aaron'
p329
sg9
S'\nfuller one on the pads which is clipped behind square on the leg side  </p>]'
p330
ssS'14.5'
p331
(dp332
g3
S'Guptill'
p333
sg5
S'no run'
p334
sg7
S' Jadeja'
p335
sg9
S'\ndirected straight to short cover by Guptill  </p>]'
p336
ssS'12.3'
p337
(dp338
g3
S'Williamson'
p339
sg5
S'1 run'
p340
sg7
S' Jadeja'
p341
sg9
S'\npunches this one off the back foot to the man at mid-on  </p>]'
p342
ssS'14.6'
p343
(dp344
g3
S'Guptill'
p345
sg5
S'no run'
p346
sg7
S' Jadeja'
p347
sg9
S'\nGuptill content to negotiate this final one to the off side  </p>]'
p348
ssS'14.1'
p349
(dp350
g3
S'Williamson'
p351
sg5
S'1 run'
p352
sg7
S' Jadeja'
p353
sg9
S'\nhelped off the back foot to the fielder at mid-on  </p>]'
p354
ssS'14.3'
p355
(dp356
g3
S'Guptill'
p357
sg5
S'1 run'
p358
sg7
S' Jadeja'
p359
sg9
S'\ndirects this one towards point for a quick single  </p>]'
p360
ssS'12.2'
p361
(dp362
g3
S'Guptill'
p363
sg5
S'1 run'
p364
sg7
S' Jadeja'
p365
sg9
S'\nthis time turns it away to the leg side for one  </p>]'
p366
ssS'24.4'
p367
(dp368
g3
S'Williamson'
p369
sg5
S'1 run'
p370
sg7
S' Jadeja'
p371
sg9
S'\ndriven effectively by Kane to long-off  </p>]'
p372
ssS'24.5'
p373
(dp374
g3
S'Guptill'
p375
sg5
S'1 run'
p376
sg7
S' Jadeja'
p377
sg9
S'\npushes this one cautiously outside off behind square  </p>]'
p378
ssS'24.6'
p379
(dp380
g3
S'Williamson'
p381
sg5
S'no run'
p382
sg7
S' Jadeja'
p383
sg9
S'\ntries a forcing drive through the covers  but finds the fielder  </p>]'
p384
ssS'14.2'
p385
(dp386
g3
S'Guptill'
p387
sg5
S'no run'
p388
sg7
S' Jadeja'
p389
sg9
S'\ncovers the line of this one heading down the pads  </p>]'
p390
ssS'6.5'
p391
(dp392
g3
S'Guptill'
p393
sg5
S'1 leg bye'
p394
sg7
S' Kumar'
p395
sg9
S'\nswinging down the leg side as Guptill attempts to get this down to fine leg  with the umpire calling a leg-bye  </p>]'
p396
ssS'24.2'
p397
(dp398
g3
S'Guptill'
p399
sg5
g121
sg7
S' Jadeja'
p400
sg9
S'\nuses the length to get deep in his crease before carting this through fine leg on one knee for a boundary. That shot also brings up his <b>fifty</b> </p>]'
p401
ssS'24.3'
p402
(dp403
g3
S'Guptill'
p404
sg5
S'1 run'
p405
sg7
S' Jadeja'
p406
sg9
S'\nthis time finds a single on the leg side  </p>]'
p407
ssS'22.2'
p408
(dp409
g3
S'Williamson'
p410
sg5
S'1 run'
p411
sg7
S' Jadeja'
p412
sg9
S'\nangles this one behind square on the off side for a single  </p>]'
p413
ssS'22.3'
p414
(dp415
g3
S'Guptill'
p416
sg5
S'no run'
p417
sg7
S' Jadeja'
p418
sg9
S'\ndriven straight to short cover  </p>]'
p419
ssS'49.5'
p420
(dp421
g3
S'Southee'
p422
sg5
S'no run'
p423
sg7
S' Mohammed Shami'
p424
sg9
S'\ntoo full outside off as Southee once again backs away  but gets too far away as he misses a golden opportunity for runs  </p>]'
p425
ssS'6.4'
p426
(dp427
g3
S'Guptill'
p428
sg5
S'no run'
p429
sg7
S' Kumar'
p430
sg9
S'\nGuptill forward to this fuller one outside off  but decides to let it go to the keeper  </p>]'
p431
ssS'22.6'
p432
(dp433
g3
S'Guptill'
p434
sg5
S'1 run'
p435
sg7
S' Jadeja'
p436
sg9
S'\ngoes for a miscued short-arm pull which affords him a single  </p>]'
p437
ssS'49.2'
p438
(dp439
g3
S'Southee'
p440
sg5
S'no run'
p441
sg7
S' Mohammed Shami'
p442
sg9
S'\ntries a slower one just outside off as Southee has shuffled over too much  as this one goes past him on the right to the keeper  </p>]'
p443
ssS'22.4'
p444
(dp445
g3
S'Guptill'
p446
sg5
S'no run'
p447
sg7
S' Jadeja'
p448
sg9
S'\nfires in one on middle and leg as Guptill fails to pick this up  </p>]'
p449
ssS'22.5'
p450
(dp451
g3
S'Guptill'
p452
sg5
S'no run'
p453
sg7
S' Jadeja'
p454
sg9
S'\ntries to get this one round the corner  but backward square into play  </p>]'
p455
ssS'7.6'
p456
(dp457
g3
S'Guptill'
p458
sg5
S'1 run'
p459
sg7
S' Aaron'
p460
sg9
S'\nlength outside off which is played late towards deep point  </p>]'
p461
ssS'43.6'
p462
(dp463
g3
S'Ronchi'
p464
sg5
g14
sg7
S' Jadeja'
p465
sg9
S'\nand NZ are imploding here in Auckland as Ronchi  who is on 38 off 19  is the next go out as he flicks Jadeja towards deep midwicket  with Rahane taking the catch  </p>]'
p466
ssS'6.2'
p467
(dp468
g3
S'Guptill'
p469
sg5
S'no run'
p470
sg7
S' Kumar'
p471
sg9
S'\nlength outside off which is left alone by the batsman  </p>]'
p472
ssS'7.4'
p473
(dp474
g3
S'Guptill'
p475
sg5
S'no run'
p476
sg7
S' Aaron'
p477
sg9
S'\ndefended off the back foot by Guptill  </p>]'
p478
ssS'34.6'
p479
(dp480
g3
S'Taylor'
p481
sg5
S'no run'
p482
sg7
S' Kumar'
p483
sg9
S'\npunched off the back foot to the leg side for none  </p>]'
p484
ssS'34.5'
p485
(dp486
g3
S'Guptill'
p487
sg5
S'1 run'
p488
sg7
S' Kumar'
p489
sg9
S'\nGuptill almost succeeded in running himself out while on 98 as he plays this one straight to Kohli at silly mid-off  who has the time to aim at the stumps before firing this one wide of them  with Guptill stranded by miles  </p>]'
p490
ssS'7.5'
p491
(dp492
g3
S'Guptill'
p493
sg5
S'2 runs'
p494
sg7
S' Aaron'
p495
sg9
S'\non the front foot as this length ball is directed towards the covers for a brace. Also brings up the fifty for NZ  </p>]'
p496
ssS'34.3'
p497
(dp498
g3
S'Guptill'
p499
sg5
S'no run'
p500
sg7
S' Kumar'
p501
sg9
S'\nleans into a drive outside off as this is played straight to short cover  </p>]'
p502
ssS'34.2'
p503
(dp504
g3
S'Guptill'
p505
sg5
g121
sg7
S' Kumar'
p506
sg9
S'\nand Guptill once again on the back foot as this time he pulls this one in front of square to beat the converging fielders to the midwicket boundary  </p>]'
p507
ssS'34.1'
p508
(dp509
g3
S'Guptill'
p510
sg5
g121
sg7
S' Kumar'
p511
sg9
S'\nshort on middle and leg which is hooked by Guptill to the fine leg boundary for four  </p>]'
p512
ssS'24.1'
p513
(dp514
g3
S'Williamson'
p515
sg5
S'1 run'
p516
sg7
S' Jadeja'
p517
sg9
S'\nsteered directly to long-off by Kane  </p>]'
p518
ssS'3.6'
p519
(dp520
g3
S'Guptill'
p521
sg5
S'no run'
p522
sg7
S' Mohammed Shami'
p523
sg9
S'\nlength outside off which is allowed through to the keeper  </p>]'
p524
ssS'3.4'
p525
(dp526
g3
S'Ryder'
p527
sg5
S'1 run'
p528
sg7
S' Mohammed Shami'
p529
sg9
S'\nagain too straight from Shami as Ryder flicks this effortlessly to fine leg  </p>]'
p530
ssS'3.5'
p531
(dp532
g3
S'Guptill'
p533
sg5
S'no run'
p534
sg7
S' Mohammed Shami'
p535
sg9
S'\ntests him with a short one which surprises Guptill as he ducks under it  </p>]'
p536
ssS'3.2'
p537
(dp538
g3
S'Ryder'
p539
sg5
g121
sg7
S' Mohammed Shami'
p540
sg9
S'\ntoo straight from Shami as Ryder whisks this off the pads to the fine leg boundary  with deep fine leg rather square in his position  which is risky with the short boundaries all around at Eden Park  </p>]'
p541
ssS'3.3'
p542
(dp543
g3
S'Ryder'
p544
sg5
S'no run'
p545
sg7
S' Mohammed Shami'
p546
sg9
S'\nfuller one going past the off stump as Ryder is cramped for space to get this away  </p>]'
p547
ssS'3.1'
p548
(dp549
g3
S'Ryder'
p550
sg5
g121
sg7
S' Mohammed Shami'
p551
sg9
S'\nRyder just swats away this length ball going across him through extra-cover for a boundary  </p>]'
p552
ssS'2.3'
p553
(dp554
g3
S'Guptill'
p555
sg5
S'1 leg bye'
p556
sg7
S' Kumar'
p557
sg9
S'\nslanting down the pads again as Guptill tries to get this one away  but the ball thuds into his thigh pad  so ends up being called a leg-bye  </p>]'
p558
ssS'2.2'
p559
(dp560
g3
S'Guptill'
p561
sg5
S'no run'
p562
sg7
S' Kumar'
p563
sg9
S'\nGuptill plays inside the line of this fuller one that rushes past the outside edge to the keeper  </p>]'
p564
ssS'2.1'
p565
(dp566
g3
S'Guptill'
p567
sg5
S'no run'
p568
sg7
S' Kumar'
p569
sg9
S'\non the front foot as this is played away towards the off side  </p>]'
p570
ssS'36.6'
p571
(dp572
g3
S'Guptill'
p573
sg5
S'no run'
p574
sg7
S' Mohammed Shami'
p575
sg9
S'\ntries to laser this one through the covers  but short cover is able to get behind this  </p>]'
p576
ssS'36.1'
p577
(dp578
g3
S'Guptill'
p579
sg5
S'no run'
p580
sg7
S' Mohammed Shami'
p581
sg9
S'\ntries to force Shami through the off side with a drive  but the fielder is on top of this  </p>]'
p582
ssS'2.6'
p583
(dp584
g3
S'Ryder'
p585
sg5
S'1 run'
p586
sg7
S' Kumar'
p587
sg9
S'\nwaits on this fuller one as Ryder just times this one sweetly square off the wicket on the off side  with the bounce threatening to go over point  but the fielder is able to stop it in the end  </p>]'
p588
ssS'2.5'
p589
(dp590
g3
S'Ryder'
p591
sg5
g121
sg7
S' Kumar'
p592
sg9
S'\nRyder intentionally edges this one outside off and shaping across him to the short third man boundary as this one rushes across the surface  </p>]'
p593
ssS'2.4'
p594
(dp595
g3
S'Ryder'
p596
sg5
S'no run'
p597
sg7
S' Kumar'
p598
sg9
S"\ngoing across him with a back of a length delivery as Ryder mistimes an attempted back foot punch. Doesn't seem to be coming along too well to the batsman from Bhuvi  </p>]"
p599
ssS'20.1'
p600
(dp601
g3
S'Williamson'
p602
sg5
S'1 run'
p603
sg7
S' Jadeja'
p604
sg9
S'\nKane able to get this away to the off side for one  </p>]'
p605
ssS'20.2'
p606
(dp607
g3
S'Guptill'
p608
sg5
g121
sg7
S' Jadeja'
p609
sg9
S'\nlofts this one over extra-cover for a boundary  </p>]'
p610
ssS'20.3'
p611
(dp612
g3
S'Guptill'
p613
sg5
S'1 run  </p>]'
p614
sg7
S' Jadeja'
p615
sg9
g135
ssS'20.4'
p616
(dp617
g3
S'Williamson'
p618
sg5
S'1 run'
p619
sg7
S' Jadeja'
p620
sg9
S'\ngets behind this one comfortably to run it down to long-on  </p>]'
p621
ssS'20.5'
p622
(dp623
g3
S'Guptill'
p624
sg5
S'no run'
p625
sg7
S' Jadeja'
p626
sg9
S'\ndefends this one to the off side  </p>]'
p627
ssS'20.6'
p628
(dp629
g3
S'Guptill'
p630
sg5
S'1 run'
p631
sg7
S' Jadeja'
p632
sg9
S'\nwhipped off the pads to square leg for one  </p>]'
p633
ssS'49.6'
p634
(dp635
g3
S'Southee'
p636
sg5
S'1 run'
p637
sg7
S' Mohammed Shami'
p638
sg9
S' <span class="commsImportant">OUT</span> \nfull on middle as this is miscued down to long-on. The NZ pair want two as they hustle hard  but the throw from the deep is able to reach Dhoni in time for him to have an under-arm flick to run out Tim Southee  </p>]'
p639
ssS'46.3'
p640
(dp641
g3
S'Southee'
p642
sg5
S'no run'
p643
sg7
S' Kumar'
p644
sg9
S'\nanother short one which has the batsman ducing wa  </p>]'
p645
ssS'42.1'
p646
(dp647
g3
S'Taylor'
p648
sg5
S'1 run'
p649
sg7
S' Mohammed Shami'
p650
sg9
S'\nfuller one that is driven down to long-on  </p>]'
p651
ssS'22.1'
p652
(dp653
g3
S'Williamson'
p654
sg5
S'no run'
p655
sg7
S' Jadeja'
p656
sg9
S'\ndriven straight back to Jadeja  who does well to field this one  </p>]'
p657
ssS'49.3'
p658
(dp659
g3
S'Southee'
p660
sg5
S'6 run'
p661
sg7
S' Mohammed Shami'
p662
sg9
S'\nand Southee charges Shami to club him over long-off for a flat six. The cameraman was in position there  and looks like he saw a ghost after that last one  </p>]'
p663
ssS'39.1'
p664
(dp665
g3
S'Ronchi'
p666
sg5
S'no run'
p667
sg7
S' Raina'
p668
sg9
S'\nRonchi tries to get away Raina through the off side  but is late on the ball  </p>]'
p669
ssS'21.5'
p670
(dp671
g3
S'Guptill'
p672
sg5
S'1 run'
p673
sg7
S' Ashwin'
p674
sg9
S'\nturns this away to the leg side for a single  </p>]'
p675
ssS'49.1'
p676
(dp677
g3
S'Bennett'
p678
sg5
S'1 run'
p679
sg7
S' Mohammed Shami'
p680
sg9
S'\nsteers this one by opening the face down to third man to get Southee on strike  </p>]'
p681
ssS'40.2'
p682
(dp683
g3
S'Taylor'
p684
sg5
S'1 run'
p685
sg7
S' Aaron'
p686
sg9
S'\nhelped down to the man at long-on for one  </p>]'
p687
ssS'40.3'
p688
(dp689
g3
S'Ronchi'
p690
sg5
S'no run'
p691
sg7
S' Aaron'
p692
sg9
S'\nlooks to cut away this shorter one through the off side  but ends up chopping it away instead  </p>]'
p693
ssS'40.1'
p694
(dp695
g3
S'Taylor'
p696
sg5
g121
sg7
S' Aaron'
p697
sg9
S'\nfull and just outside off as Taylor gets an edge on it to get a streaky boundary through third man  </p>]'
p698
ssS'40.6'
p699
(dp700
g3
S'Ronchi'
p701
sg5
g121
sg7
S' Aaron'
p702
sg9
S'\nanother overpitched ball  almost a yorker  as Ronchi is able to pierce the gap through extra-cover to get a boundary  </p>]'
p703
ssS'40.4'
p704
(dp705
g3
S'Ronchi'
p706
sg5
g121
sg7
S' Aaron'
p707
sg9
S'\nAaron fires in a bouncer which Ronchi goes for as this one is top-edged well over the keeper  with third man watching it go over the rope  </p>]'
p708
ssS'40.5'
p709
(dp710
g3
S'Ronchi'
p711
sg5
S'2 runs'
p712
sg7
S' Aaron'
p713
sg9
S'\nfull again as this is drilled towards cover  with the pair running a hard single  before returning back because of the fielder not backing up the first throw  </p>]'
p714
ssS'27.3'
p715
(dp716
g3
S'Guptill'
p717
sg5
S'no run'
p718
sg7
S' Ashwin'
p719
sg9
S'\ntries another forcing shot through the leg side  </p>]'
p720
ssS'27.2'
p721
(dp722
g3
S'Guptill'
p723
sg5
S'no run'
p724
sg7
S' Ashwin'
p725
sg9
S'\nlooks to get this one away past silly mid-on  but the fielder is equal to the task  </p>]'
p726
ssS'27.1'
p727
(dp728
g3
S'Williamson'
p729
sg5
S'1 run'
p730
sg7
S' Ashwin'
p731
sg9
S'\nand Williamson finds the gap on the leg side as he brings up another <b>fifty</b>  the third one of the series at that  </p>]'
p732
ssS'21.6'
p733
(dp734
g3
S'Williamson'
p735
sg5
S'1 run'
p736
sg7
S' Ashwin'
p737
sg9
S'\nKane uses his feet to help push this one down to long-on  </p>]'
p738
ssS'43.3'
p739
(dp740
g3
S'Ronchi'
p741
sg5
S'1 run'
p742
sg7
S' Jadeja'
p743
sg9
S'\nhelped down to the man at long-on for one  </p>]'
p744
ssS'27.6'
p745
(dp746
g3
S'Guptill'
p747
sg5
S'no run'
p748
sg7
S' Ashwin'
p749
sg9
S'\nwhipped off the pads straight to mid-on  </p>]'
p750
ssS'27.5'
p751
(dp752
g3
S'Williamson'
p753
sg5
S'1 run'
p754
sg7
S' Ashwin'
p755
sg9
S'\nhelped down to the fielder at long-on for one  </p>]'
p756
ssS'27.4'
p757
(dp758
g3
S'Guptill'
p759
sg5
S'1 run'
p760
sg7
S' Ashwin'
p761
sg9
S'\nwell fielded by Rahane as this one is directed towards silly mid-on  with Rahane pulling out the dive to stop this in its tracks  </p>]'
p762
ssS'21.1'
p763
(dp764
g3
S'Guptill'
p765
sg5
S'1 run'
p766
sg7
S' Ashwin'
p767
sg9
S'\nturns this one to the leg side for one  </p>]'
p768
ssS'42.2'
p769
(dp770
g3
S'Ronchi'
p771
sg5
g661
sg7
S' Mohammed Shami'
p772
sg9
S'\nlow full toss and Ronchi is simply in the form of his life as he flicks this one effortlessly to deep fine leg. There is a man in the Orange Brigade who tries a one-handed catch  but the ball bobbles out. Looking quite disconsolate now  that guy  </p>]'
p773
ssS'12.5'
p774
(dp775
g3
S'Guptill'
p776
sg5
S'1 run'
p777
sg7
S' Jadeja'
p778
sg9
S'\nsteers this one behind square to backward point  </p>]'
p779
ssS'42.4'
p780
(dp781
g3
S'Taylor'
p782
sg5
g14
sg7
S' Mohammed Shami'
p783
sg9
S'\nand finally India has managed to knock down the stumps as that man Rahane picks this one up from silly mid-off  who takes a bit of time before firing in the accurate throw. Taylor is the unlucky man as he storms off on 17  </p>]'
p784
ssS'30.4'
p785
(dp786
g3
S'Guptill'
p787
sg5
g661
sg7
S' Mohammed Shami'
p788
sg9
S'\nfuller one on middle and off which is lofted straight down the ground effortlessly  with his head bowed in trademark Guptill fashion  </p>]'
p789
ssS'42.6'
p790
(dp791
g3
S'Ronchi'
p792
sg5
S'1 run'
p793
sg7
S' Mohammed Shami'
p794
sg9
S'\nand Ronchi keeps the strike with a pull to the leg side for one  </p>]'
p795
ssS'25.1'
p796
(dp797
g3
S'Guptill'
p798
sg5
S'no run'
p799
sg7
S' Raina'
p800
sg9
S'\ntries to whack this one over the leg side  but miscues it  </p>]'
p801
ssS'25.3'
p802
(dp803
g3
S'Williamson'
p804
sg5
g121
sg7
S' Raina'
p805
sg9
S'\ntucks this one round the corner to the fine leg boundary for four  </p>]'
p806
ssS'25.2'
p807
(dp808
g3
S'Guptill'
p809
sg5
S'1 run'
p810
sg7
S' Raina'
p811
sg9
S'\nthis time driven down to long-on for one  </p>]'
p812
ssS'25.5'
p813
(dp814
g3
S'Guptill'
p815
sg5
S'no run'
p816
sg7
S' Raina'
p817
sg9
S"\ndabbed down to mid-on  but can't pinch the single  </p>]"
p818
ssS'25.4'
p819
(dp820
g3
S'Williamson'
p821
sg5
S'1 run'
p822
sg7
S' Raina'
p823
sg9
S'\ngets low to play a short-arm pull to square leg  </p>]'
p824
ssS'25.6'
p825
(dp826
g3
S'Guptill'
p827
sg5
S'2 runs'
p828
sg7
S' Raina'
p829
sg9
S'\nclobbers this one through square leg for a brace  </p>]'
p830
ssS'21.2'
p831
(dp832
g3
S'Williamson'
p833
sg5
g661
sg7
S' Ashwin'
p834
sg9
S'\nambles down before lofting him beautifully through extra-cover for a six  </p>]'
p835
ssS'28.6'
p836
(dp837
g3
S'Guptill'
p838
sg5
S'2 runs'
p839
sg7
S' Aaron'
p840
sg9
S'\nclipped off the pads down to deep square leg for a couple  </p>]'
p841
ssS'23.6'
p842
(dp843
g3
S'Guptill'
p844
sg5
S'no run'
p845
sg7
S' Raina'
p846
sg9
S'\nplayed straight to square leg to end the over  </p>]'
p847
ssS'23.5'
p848
(dp849
g3
S'Williamson'
p850
sg5
S'1 run'
p851
sg7
S' Raina'
p852
sg9
S'\npushed past the bowler to his right to the long-on fielder  </p>]'
p853
ssS'23.4'
p854
(dp855
g3
S'Guptill'
p856
sg5
S'1 run'
p857
sg7
S' Raina'
p858
sg9
S'\nwhisks this one away to the leg side  </p>]'
p859
ssS'23.3'
p860
(dp861
g3
S'Williamson'
p862
sg5
S'1 run'
p863
sg7
S' Raina'
p864
sg9
S'\nsacheys down the track before nurdling this to long-on  </p>]'
p865
ssS'23.2'
p866
(dp867
g3
S'Guptill'
p868
sg5
S'1 run'
p869
sg7
S' Raina'
p870
sg9
S'\ndriven straight to long-off for one  </p>]'
p871
ssS'23.1'
p872
(dp873
g3
S'Guptill'
p874
sg5
S'no run'
p875
sg7
S' Raina'
p876
sg9
S'\npushed off the back foot to mid-on  </p>]'
p877
ssS'1.60'
p878
(dp879
g3
S'Ryder'
p880
sg5
g6
sg7
S' Mohammed Shami'
p881
sg9
S'\na really messy delivery from Shami as he gets this bouncer horribly wrong  with the ball rising way over the batsman and keeper to carry behind for five wides  </p>]'
p882
ssS'32.1'
p883
(dp884
g3
S'Guptill'
p885
sg5
S'no run'
p886
sg7
S' Mohammed Shami'
p887
sg9
S"\nshort of a length outside off which beats Guptill's play-and-a-miss outside off  </p>]"
p888
ssS'32.3'
p889
(dp890
g3
S'Guptill'
p891
sg5
S'no run'
p892
sg7
S' Mohammed Shami'
p893
sg9
S'\nshort outside off as Guptill attempts a ramp over the slip region  </p>]'
p894
ssS'32.2'
p895
(dp896
g3
S'Guptill'
p897
sg5
g121
sg7
S' Mohammed Shami'
p898
sg9
S'\nrocks back before sending this short one from Shami to the deep midwicket boundary  </p>]'
p899
ssS'32.5'
p900
(dp901
g3
S'Williamson'
p902
sg5
g14
sg7
S' Mohammed Shami'
p903
sg9
S'\nand in the quest for quick runs Williamson backs away  thinking he could cart another short one over the slips from Shami  but Shami is able to pitch this one well up on middle and leg  with Kane not in a position at all to work this away. Ends a terrific innings from Kane  who will be livid at not being able to kick-on after the start  </p>]'
p904
ssS'32.4'
p905
(dp906
g3
S'Guptill'
p907
sg5
S'1 run'
p908
sg7
S' Mohammed Shami'
p909
sg9
S'\nshort again as Guptill pulls this time behind square on the leg side  but fine leg is placed well by Dhoni  </p>]'
p910
ssS'32.6'
p911
(dp912
g3
S'Anderson'
p913
sg5
S'1 run'
p914
sg7
S' Mohammed Shami'
p915
sg9
S'\nangling in on Anderson from round the wicket as this is fended away to the leg side  </p>]'
p916
ssS'33.4'
p917
(dp918
g3
S'Guptill'
p919
sg5
S'1 run'
p920
sg7
S' Ashwin'
p921
sg9
S'\ndriven down to long-off for a single  </p>]'
p922
ssS'19.4'
p923
(dp924
g3
S'Guptill'
p925
sg5
S'no run'
p926
sg7
S' Ashwin'
p927
sg9
S'\nfinds the fielder at silly mid-on with a gentle push  </p>]'
p928
ssS'33.6'
p929
(dp930
g3
S'Taylor'
p931
sg5
S'no run'
p932
sg7
S' Ashwin'
p933
sg9
S'\nlooks to turn away this first one from Ashwin to the leg side  but is sent back by the non-striker  </p>]'
p934
ssS'33.1'
p935
(dp936
g3
S'Anderson'
p937
sg5
S'no run'
p938
sg7
S' Ashwin'
p939
sg9
S'\nreaches out before attempting to help this round the corner  </p>]'
p940
ssS'33.2'
p941
(dp942
g3
S'Anderson'
p943
sg5
g661
sg7
S' Ashwin'
p944
sg9
S'\nand Anderson straight into the thick of things as he belts Ashwin with a flat six over long-on  </p>]'
p945
ssS'19.5'
p946
(dp947
g3
S'Guptill'
p948
sg5
S'no run'
p949
sg7
S' Ashwin'
p950
sg9
S'\nonce again finds the same fielder as they look to penetrate the inner field  </p>]'
p951
ssS'7.50'
p952
(dp953
g3
S'Guptill'
p954
sg5
g6
sg7
S' Aaron'
p955
sg9
S'\nfires in a bouncer which travels quite high over the batsman as the umpire signals a wide  </p>]'
p956
ssS'19.6'
p957
(dp958
g3
S'Guptill'
p959
sg5
S'no run'
p960
sg7
S' Ashwin'
p961
sg9
S'\ntucks this one straight to the man at backward square  </p>]'
p962
ssS'11.10'
p963
(dp964
g3
S'Williamson'
p965
sg5
g6
sg7
S' Aaron'
p966
sg9
S'\nsplays this one well down the leg side  </p>]'
p967
ssS'29.4'
p968
(dp969
g3
S'Williamson'
p970
sg5
S'1 run'
p971
sg7
S' Ashwin'
p972
sg9
S'\ndirected away to the off side by Kane for a single  </p>]'
p973
ssS'39.6'
p974
(dp975
g3
S'Taylor'
p976
sg5
S'1 run'
p977
sg7
S' Raina'
p978
sg9
S'\ntries a single on the leg side as Jadeja pounces on this quickly before rattling a throw to Dhoni  who breaks the stumps before he had collected the ball. But it is all okay as the batsman had made his ground in time  </p>]'
p979
ssS'39.4'
p980
(dp981
g3
S'Ronchi'
p982
sg5
S'1 leg bye'
p983
sg7
S' Raina'
p984
sg9
S'\nflicks this leg side delivery for a single  but ends up being called a leg-bye  </p>]'
p985
ssS'39.5'
p986
(dp987
g3
S'Taylor'
p988
sg5
S'no run'
p989
sg7
S' Raina'
p990
sg9
S'\nTaylor fends this fuller one away to the leg side  </p>]'
p991
ssS'39.2'
p992
(dp993
g3
S'Ronchi'
p994
sg5
S'no run'
p995
sg7
S' Raina'
p996
sg9
S'\nthis time tries through the leg side  but no dice  </p>]'
p997
ssS'39.3'
p998
(dp999
g3
S'Ronchi'
p1000
sg5
S'no run  </p>]'
p1001
sg7
S' Raina'
p1002
sg9
g135
ssS'19.1'
p1003
(dp1004
g3
S'Williamson'
p1005
sg5
S'2 runs'
p1006
sg7
S' Ashwin'
p1007
sg9
S'\ndriven down to long-on for a single as Raina recovers the ball  </p>]'
p1008
ssS'8.1'
p1009
(dp1010
g3
S'Guptill'
p1011
sg5
S'no run'
p1012
sg7
S' Kumar'
p1013
sg9
S'\ngets on the front foot as this is defended back to the bowler  </p>]'
p1014
ssS'21.4'
p1015
(dp1016
g3
S'Williamson'
p1017
sg5
S'1 run'
p1018
sg7
S' Ashwin'
p1019
sg9
S'\nable to get this to the leg side for a quick single  </p>]'
p1020
ssS'8.3'
p1021
(dp1022
g3
S'Williamson'
p1023
sg5
S'no run'
p1024
sg7
S' Kumar'
p1025
sg9
S'\ntries to cut this one through the covers but finds the close in fielder  </p>]'
p1026
ssS'8.2'
p1027
(dp1028
g3
S'Guptill'
p1029
sg5
S'1 run'
p1030
sg7
S' Kumar'
p1031
sg9
S'\nshortish length outside off which is run down to third man  </p>]'
p1032
ssS'8.5'
p1033
(dp1034
g3
S'Williamson'
p1035
sg5
S'1 run'
p1036
sg7
S' Kumar'
p1037
sg9
S'\non the back foot as this is worked away to mid-off  </p>]'
p1038
ssS'8.4'
p1039
(dp1040
g3
S'Williamson'
p1041
sg5
S'no run'
p1042
sg7
S' Kumar'
p1043
sg9
S'\nfuller one outside off which is let through to the keeper  </p>]'
p1044
ssS'21.3'
p1045
(dp1046
g3
S'Williamson'
p1047
sg5
S'no run'
p1048
sg7
S' Ashwin'
p1049
sg9
S'\nonce again looking to force the issue  but pushes this one straight to the bowler  </p>]'
p1050
ssS'8.6'
p1051
(dp1052
g3
S'Guptill'
p1053
sg5
S'no run'
p1054
sg7
S' Kumar'
p1055
sg9
S'\ndefended once again by Guptill on the front foot to bring an end to the over  </p>]'
p1056
ssS'19.3'
p1057
(dp1058
g3
S'Williamson'
p1059
sg5
S'1 run'
p1060
sg7
S' Ashwin'
p1061
sg9
S'\npushes this one past the bowler to long-on  </p>]'
p1062
ssS'44.4'
p1063
(dp1064
g3
S'Southee'
p1065
sg5
S'no run'
p1066
sg7
S' Kumar'
p1067
sg9
S'\nlength outside off which is defended back to the bowler  </p>]'
p1068
ssS'45.60'
p1069
(dp1070
g3
S'Southee'
p1071
sg5
g6
sg7
S' Mohammed Shami'
p1072
sg9
S'\nsplaying down the leg side as the batsman backs away  and is definitely outside the line  but this ends up being called a wide anyways  </p>]'
p1073
ssS'42.5'
p1074
(dp1075
g3
S'Ronchi'
p1076
sg5
g661
sg7
S' Mohammed Shami'
p1077
sg9
S'\nRonchi knows he has to push on  and how. He proceeds to slam this full toss over the straight boundary for a six  </p>]'
p1078
ssS'30.3'
p1079
(dp1080
g3
S'Guptill'
p1081
sg5
S'no run'
p1082
sg7
S' Mohammed Shami'
p1083
sg9
S'\nlength outside off as Guptill leans into a drive through cover  </p>]'
p1084
ssS'44.5'
p1085
(dp1086
g3
S'Southee'
p1087
sg5
S'no run'
p1088
sg7
S' Kumar'
p1089
sg9
S'\noff the back foot and worked away to silly mid-on  </p>]'
p1090
ssS'9.4'
p1091
(dp1092
g3
S'Guptill'
p1093
sg5
S'no run'
p1094
sg7
S' Aaron'
p1095
sg9
S'\nfull again from Aaron as this is driven straight to mid-on  </p>]'
p1096
ssS'9.5'
p1097
(dp1098
g3
S'Guptill'
p1099
sg5
S'no run'
p1100
sg7
S' Aaron'
p1101
sg9
S"\nplays this shortish length with soft hands  but can't pinch the run as Aaron runs up to field this one  </p>]"
p1102
ssS'9.6'
p1103
(dp1104
g3
S'Guptill'
p1105
sg5
S'1 run'
p1106
sg7
S' Aaron'
p1107
sg9
S"\nGuptill gets forward to direct this away to the leg side before darting off to the other end for a quick single. Jadeja  coming in from the leg side  picks it up quickly before having a shy at the non-striker's  but misses the stumps  with Guptill putting in a full dive to make his ground  </p>]"
p1108
ssS'9.1'
p1109
(dp1110
g3
S'Williamson'
p1111
sg5
S'1 run'
p1112
sg7
S' Aaron'
p1113
sg9
S'\nfuller one on middle which is worked away for a single  </p>]'
p1114
ssS'9.2'
p1115
(dp1116
g3
S'Guptill'
p1117
sg5
S'no run'
p1118
sg7
S' Aaron'
p1119
sg9
S'\npitched up from Aaron as this is driven straight back to the bowler  </p>]'
p1120
ssS'9.3'
p1121
(dp1122
g3
S'Guptill'
p1123
sg5
S'2 runs'
p1124
sg7
S' Aaron'
p1125
sg9
S'\nin the blockhole as Guptill is able to dig this out behind square on the leg side  </p>]'
p1126
ssS'34.4'
p1127
(dp1128
g3
S'Guptill'
p1129
sg5
S'2 runs'
p1130
sg7
S' Kumar'
p1131
sg9
S'\noff the back foot as this is worked down to mid-on  </p>]'
p1132
ssS'41.6'
p1133
(dp1134
g3
S'Ronchi'
p1135
sg5
g121
sg7
S' Raina'
p1136
sg9
S'\ncuts this one away outside off  and with no fielders in the vicinity  it turns out to be an easy four  </p>]'
p1137
ssS'41.5'
p1138
(dp1139
g3
S'Ronchi'
p1140
sg5
g661
sg7
S' Raina'
p1141
sg9
S'\ninto position quickly to bludgeon this Raina offering to the straight boundary  </p>]'
p1142
ssS'41.4'
p1143
(dp1144
g3
S'Ronchi'
p1145
sg5
S'no run'
p1146
sg7
S' Raina'
p1147
sg9
S'\ntries to caress this through the covers  but finds the fielder  </p>]'
p1148
ssS'41.3'
p1149
(dp1150
g3
S'Taylor'
p1151
sg5
S'1 run'
p1152
sg7
S' Raina'
p1153
sg9
S'\npushed down to the man at long-on for a single  </p>]'
p1154
ssS'41.2'
p1155
(dp1156
g3
S'Ronchi'
p1157
sg5
S'1 run'
p1158
sg7
S' Raina'
p1159
sg9
S'\neased off the pads towards backward square for one  </p>]'
p1160
ssS'30.1'
p1161
(dp1162
g3
S'Williamson'
p1163
sg5
g121
sg7
S' Mohammed Shami'
p1164
sg9
S'\nshort outside off as Kane steps back before clattering this over the covers for a boundary  </p>]'
p1165
ssS'30.6'
p1166
(dp1167
g3
S'Guptill'
p1168
sg5
g121
sg7
S' Mohammed Shami'
p1169
sg9
S'\nand another lofted shot down the ground by Guptill as this one is hit powerfully enough to beat the long-on fielder to the rope  </p>]'
p1170
ssS'44.2'
p1171
(dp1172
g3
S'McClenaghan'
p1173
sg5
S'1 run'
p1174
sg7
S' Kumar'
p1175
sg9
S'\nruns this one to the off side for a single to get off the mark  </p>]'
p1176
ssS'43.5'
p1177
(dp1178
g3
S'McCullum'
p1179
sg5
g14
sg7
S' Jadeja'
p1180
sg9
S"\npushed off the back foot as there is a mix-up between the two batsman  with the throw coming in to Jadeja who removes the bails before Nathan is able to get in at the non-striker's  </p>]"
p1181
ssS'28.1'
p1182
(dp1183
g3
S'Williamson'
p1184
sg5
S'no run'
p1185
sg7
S' Aaron'
p1186
sg9
S'\nback of a length and angling in as Kane is able to cover the line  </p>]'
p1187
ssS'28.2'
p1188
(dp1189
g3
S'Williamson'
p1190
sg5
g121
sg7
S' Aaron'
p1191
sg9
S'\noverpitched from Aaron as this is lofted over mid-on for a one-bounce four  </p>]'
p1192
ssS'28.3'
p1193
(dp1194
g3
S'Williamson'
p1195
sg5
S'no run'
p1196
sg7
S' Aaron'
p1197
sg9
S'\nbacks away to try and direct this past backward point  </p>]'
p1198
ssS'28.4'
p1199
(dp1200
g3
S'Williamson'
p1201
sg5
S'1 run'
p1202
sg7
S' Aaron'
p1203
sg9
S'\neased off the back foot behind square to deep fine leg  </p>]'
p1204
ssS'28.5'
p1205
(dp1206
g3
S'Guptill'
p1207
sg5
S'no run'
p1208
sg7
S' Aaron'
p1209
sg9
S'\nswinging in on middle and leg as Guptill finds silly mid-on  </p>]'
p1210
ssS'7.3'
p1211
(dp1212
g3
S'Williamson'
p1213
sg5
S'1 run'
p1214
sg7
S' Aaron'
p1215
sg9
S'\nwide outside off as Kane plays this one late to get it down to third man  but third man is able to rush over to stop this from hitting the rope  </p>]'
p1216
ssS'15.5'
p1217
(dp1218
g3
S'Williamson'
p1219
sg5
S'1 run'
p1220
sg7
S' Ashwin'
p1221
sg9
S'\ndefended again down to long-on for one  </p>]'
p1222
ssS'19.2'
p1223
(dp1224
g3
S'Williamson'
p1225
sg5
S'no run'
p1226
sg7
S' Ashwin'
p1227
sg9
S'\ndances down to try a lofted shot  but decides to abort that for a more conservative stroke to the bowler  </p>]'
p1228
ssS'38.2'
p1229
(dp1230
g3
S'Taylor'
p1231
sg5
S'1 run'
p1232
sg7
S' Aaron'
p1233
sg9
S'\nfires in a bouncer which is worked away to deep fine leg  </p>]'
p1234
ssS'31.6'
p1235
(dp1236
g3
S'Guptill'
p1237
sg5
S'1 run'
p1238
sg7
S' Ashwin'
p1239
sg9
S'\ntries another push off the back foot on the leg side for one  </p>]'
p1240
ssS'38.4'
p1241
(dp1242
g3
S'McCullum'
p1243
sg5
S'no run'
p1244
sg7
S' Aaron'
p1245
sg9
S'\nonce again up there from Aaron as this is played away to the off side  </p>]'
p1246
ssS'31.4'
p1247
(dp1248
g3
S'Guptill'
p1249
sg5
S'1 run'
p1250
sg7
S' Ashwin'
p1251
sg9
S'\ndriven down to long-on for one  </p>]'
p1252
ssS'31.5'
p1253
(dp1254
g3
S'Williamson'
p1255
sg5
S'1 run'
p1256
sg7
S' Ashwin'
p1257
sg9
S'\nflicked away to deep square leg for a single  </p>]'
p1258
ssS'31.2'
p1259
(dp1260
g3
S'Williamson'
p1261
sg5
S'1 run'
p1262
sg7
S' Ashwin'
p1263
sg9
S'\nturns this fuller one away to the leg side for one  </p>]'
p1264
ssS'31.3'
p1265
(dp1266
g3
S'Guptill'
p1267
sg5
S'no run'
p1268
sg7
S' Ashwin'
p1269
sg9
S'\nback of a length and pushed away to the leg side  </p>]'
p1270
ssS'31.1'
p1271
(dp1272
g3
S'Williamson'
p1273
sg5
S'no run'
p1274
sg7
S' Ashwin'
p1275
sg9
S"\nwhipped away on the front foot to the leg side  but can't beat square leg  </p>]"
p1276
ssS'18.1'
p1277
(dp1278
g3
S'Guptill'
p1279
sg5
S'2 runs'
p1280
sg7
S' Jadeja'
p1281
sg9
S'\npushes this one behind square on the off side for two  </p>]'
p1282
ssS'18.3'
p1283
(dp1284
g3
S'Guptill'
p1285
sg5
S'1 run'
p1286
sg7
S' Jadeja'
p1287
sg9
S'\ndrilled down to long-on for one  </p>]'
p1288
ssS'18.2'
p1289
(dp1290
g3
S'Guptill'
p1291
sg5
S'no run'
p1292
sg7
S' Jadeja'
p1293
sg9
S'\non the front foot and fended away to the leg side  </p>]'
p1294
ssS'18.5'
p1295
(dp1296
g3
S'Williamson'
p1297
sg5
S'no run'
p1298
sg7
S' Jadeja'
p1299
sg9
S'\ntries to run this one past backward point  </p>]'
p1300
ssS'18.4'
p1301
(dp1302
g3
S'Williamson'
p1303
sg5
S'no run'
p1304
sg7
S' Jadeja'
p1305
sg9
S'\ndriven straight to mid-on  </p>]'
p1306
ssS'18.6'
p1307
(dp1308
g3
S'Williamson'
p1309
sg5
S'1 run'
p1310
sg7
S' Jadeja'
p1311
sg9
S'\nclipped to the leg side  looking for two  but can only get the one  </p>]'
p1312
ssS'1.4'
p1313
(dp1314
g3
S'Ryder'
p1315
sg5
S'1 run'
p1316
sg7
S' Mohammed Shami'
p1317
sg9
S'\nstraying on the pads as Ryder tucks this one down to deep fine leg  </p>]'
p1318
ssS'1.5'
p1319
(dp1320
g3
S'Guptill'
p1321
sg5
S'1 run'
p1322
sg7
S' Mohammed Shami'
p1323
sg9
S'\nshortish length outside off which is run down to third man  </p>]'
p1324
ssS'1.6'
p1325
(dp1326
g3
S'Ryder'
p1327
sg5
S'no run'
p1328
sg7
S' Mohammed Shami'
p1329
sg9
S'\nthis time gets it right with a pitched up delivery that swings in from outside off as Ryder tries to blaze this away through the off side  </p>]'
p1330
ssS'1.1'
p1331
(dp1332
g3
S'Ryder'
p1333
sg5
S'1 run'
p1334
sg7
S' Mohammed Shami'
p1335
sg9
S'\nsurprises him with some extra bounce  right in that awkward region left-handers hate as Ryder fends this away behind square for a rushed single  </p>]'
p1336
ssS'1.2'
p1337
(dp1338
g3
S'Guptill'
p1339
sg5
S'no run'
p1340
sg7
S' Mohammed Shami'
p1341
sg9
S'\nplays this one off the back foot towards backward point  </p>]'
p1342
ssS'1.3'
p1343
(dp1344
g3
S'Guptill'
p1345
sg5
S'1 leg bye'
p1346
sg7
S' Mohammed Shami'
p1347
sg9
S'\nShami tries another bouncer and this time Guptill is the unlucky party as this one hurries onto him from a shortish length  clanging him on the helmet as he went for a hook  </p>]'
p1348
ssS'0.1'
p1349
(dp1350
g3
S'Guptill'
p1351
sg5
g121
sg7
S' Kumar'
p1352
sg9
S'\nshort of a length  middle and leg  hits Rohit Sharma on the thigh pad  </p>]'
p1353
ssS'30.2'
p1354
(dp1355
g3
S'Williamson'
p1356
sg5
S'1 run'
p1357
sg7
S' Mohammed Shami'
p1358
sg9
S'\n<b>dropped</b> looks like Kane is in a mood to dominate as he hammers this off the back foot straight to silly mid-on  with Raina getting low to his right to try and take this before dropping it  </p>]'
p1359
ssS'0.3'
p1360
(dp1361
g3
S'Guptill'
p1362
sg5
g121
sg7
S' Kumar'
p1363
sg9
S'\nthis time angling down the pads as Guptill glances this one fine down the leg side for four  </p>]'
p1364
ssS'0.2'
p1365
(dp1366
g3
S'Guptill'
p1367
sg5
S'no run'
p1368
sg7
S' Kumar'
p1369
sg9
S'\nsimilar line as before as this time Guptill chops it away to the short cover fielder  </p>]'
p1370
ssS'0.5'
p1371
(dp1372
g3
S'Guptill'
p1373
sg5
S'no run'
p1374
sg7
S' Kumar'
p1375
sg9
S'\non the back foot to this back of a length offering from Bhuvneshwar  </p>]'
p1376
ssS'0.4'
p1377
(dp1378
g3
S'Guptill'
p1379
sg5
S'no run'
p1380
sg7
S' Kumar'
p1381
sg9
S'\nback of a length and covered well by Guptill  </p>]'
p1382
ssS'30.5'
p1383
(dp1384
g3
S'Guptill'
p1385
sg5
S'no run'
p1386
sg7
S' Mohammed Shami'
p1387
sg9
S'\ntries another short one which Guptill decides to drop his wrists to  </p>]'
p1388
ssS'0.6'
p1389
(dp1390
g3
S'Guptill'
p1391
sg5
S'no run'
p1392
sg7
S' Kumar'
p1393
sg9
S'\nsolid on the front foot this time to end the first over. Good start for NZ so far  </p>]'
p1394
ssS'38.3'
p1395
(dp1396
g3
S'McCullum'
p1397
sg5
S'no run'
p1398
sg7
S' Aaron'
p1399
sg9
S'\nin the blockhole as Brendon is able to keep this out  </p>]'
p1400
ssS'36.5'
p1401
(dp1402
g3
S'Guptill'
p1403
sg5
g121
sg7
S' Mohammed Shami'
p1404
sg9
S'\nlow full toss on middle and leg which is powered over long-on for a boundary  </p>]'
p1405
ssS'38.1'
p1406
(dp1407
g3
S'Taylor'
p1408
sg5
S'no run'
p1409
sg7
S' Aaron'
p1410
sg9
S'\nshort of a length and defended off the back foot to the off side  </p>]'
p1411
ssS'38.6'
p1412
(dp1413
g3
S'Ronchi'
p1414
sg5
S'1 run'
p1415
sg7
S' Aaron'
p1416
sg9
S'\nand he is off the mark with a single down to long-on  </p>]'
p1417
ssS'38.5'
p1418
(dp1419
g3
S'McCullum'
p1420
sg5
g14
sg7
S' Aaron'
p1421
sg9
S'\nshort and wide as Brendon will not trouble the scorers today as he hammers this straight to Ashwin at point  who takes a safe catch. Aaron finally takes a wicket in his comeback match  and New Zealand are 230 for 5  </p>]'
p1422
ssS'36.4'
p1423
(dp1424
g3
S'Taylor'
p1425
sg5
S'1 run'
p1426
sg7
S' Mohammed Shami'
p1427
sg9
S'\npushes this one past the bowler for a single  </p>]'
p1428
ssS'13.6'
p1429
(dp1430
g3
S'Guptill'
p1431
sg5
S'no run'
p1432
sg7
S' Ashwin'
p1433
sg9
S'\nsafely negotiates this final one to end a good over from Ashwin  </p>]'
p1434
ssS'13.4'
p1435
(dp1436
g3
S'Williamson'
p1437
sg5
S'1 run'
p1438
sg7
S' Ashwin'
p1439
sg9
S'\nplayed off the back foot down to mid-on  </p>]'
p1440
ssS'13.5'
p1441
(dp1442
g3
S'Guptill'
p1443
sg5
S'no run'
p1444
sg7
S' Ashwin'
p1445
sg9
S'\neases this one back to the bowler  </p>]'
p1446
ssS'13.2'
p1447
(dp1448
g3
S'Guptill'
p1449
sg5
S'1 run'
p1450
sg7
S' Ashwin'
p1451
sg9
S'\npresses forward to play this softly to the off side for a quick single  </p>]'
p1452
ssS'13.3'
p1453
(dp1454
g3
S'Williamson'
p1455
sg5
S'no run'
p1456
sg7
S' Ashwin'
p1457
sg9
S'\nonce again defended back to the bowler  </p>]'
p1458
ssS'13.1'
p1459
(dp1460
g3
S'Guptill'
p1461
sg5
S'no run'
p1462
sg7
S' Ashwin'
p1463
sg9
S'\ndefends this one off the back foot to Ashwin  </p>]'
p1464
ssS'4.5'
p1465
(dp1466
g3
S'Williamson'
p1467
sg5
S'no run'
p1468
sg7
S' Kumar'
p1469
sg9
S'\non the front foot to block this one to the off side  </p>]'
p1470
ssS'4.4'
p1471
(dp1472
g3
S'Williamson'
p1473
sg5
S'no run'
p1474
sg7
S' Kumar'
p1475
sg9
S'\nfull and on the money as this is defended back to the bowler  </p>]'
p1476
ssS'5.2'
p1477
(dp1478
g3
S'Guptill'
p1479
sg5
S'4 leg byes'
p1480
sg7
S' Mohammed Shami'
p1481
sg9
S"\nbut this won't stop Guptill from trying his luck to another leg side bound delivery from Shami as he glances this one ever so fine to the boundary  </p>]"
p1482
ssS'4.6'
p1483
(dp1484
g3
S'Williamson'
p1485
sg5
S'1 run'
p1486
sg7
S' Kumar'
p1487
sg9
S"\nanother short one from Kumar and Kane goes after it instinctively  but doesn't quite get it off the middle  as this spoons high over towards deep fine leg  but falls just short of the fielder  </p>]"
p1488
ssS'4.1'
p1489
(dp1490
g3
S'Ryder'
p1491
sg5
g121
sg7
S' Kumar'
p1492
sg9
S'\nsublime timing from Ryder as he just opens the face to this back of a length ball going across him to find the point boundary. This one just screamed off the bat  </p>]'
p1493
ssS'5.5'
p1494
(dp1495
g3
S'Williamson'
p1496
sg5
S'no run'
p1497
sg7
S' Mohammed Shami'
p1498
sg9
S'\na little bit of away swing for Shami as Kane shoulders arms  </p>]'
p1499
ssS'4.3'
p1500
(dp1501
g3
S'Williamson'
p1502
sg5
S'no run'
p1503
sg7
S' Kumar'
p1504
sg9
S'\nwelcomes him to the crease with a short one as Kane does the sensible thing by ducking away  </p>]'
p1505
ssS'4.2'
p1506
(dp1507
g3
S'Ryder'
p1508
sg5
g14
sg7
S' Kumar'
p1509
sg9
S'\nand what a response from Bhuvi! The Indian contingent goes beserk as he gets this length ball to shape in on Ryder  who was looking to get this leg side  but the ball ends up hitting his pads onto the top of leg stump  </p>]'
p1510
ssS'11.4'
p1511
(dp1512
g3
S'Williamson'
p1513
sg5
S'no run'
p1514
sg7
S' Aaron'
p1515
sg9
S'\nshort one from Aaron which has Kane ducking for cover  </p>]'
p1516
ssS'11.5'
p1517
(dp1518
g3
S'Williamson'
p1519
sg5
S'no run'
p1520
sg7
S' Aaron'
p1521
sg9
S'\ntimes this fuller one outside off to the man at point  </p>]'
p1522
ssS'11.6'
p1523
(dp1524
g3
S'Williamson'
p1525
sg5
S'no run'
p1526
sg7
S' Aaron'
p1527
sg9
S'\nshort and wide outside off as Kane lets it through to the keeper  </p>]'
p1528
ssS'11.1'
p1529
(dp1530
g3
S'Williamson'
p1531
sg5
S'1 leg bye'
p1532
sg7
S' Aaron'
p1533
sg9
S'\nwhisked away to the leg side for a quick single  </p>]'
p1534
ssS'11.2'
p1535
(dp1536
g3
S'Guptill'
p1537
sg5
g121
sg7
S' Aaron'
p1538
sg9
S'\nin the slot for Guptill as he leans into this drive through extra-cover for a boundary  </p>]'
p1539
ssS'11.3'
p1540
(dp1541
g3
S'Guptill'
p1542
sg5
S'1 run'
p1543
sg7
S' Aaron'
p1544
sg9
S'\nplays this one with soft hands to the off side as Rahane  coming in from backward point  picks it up and throws it under-arm at the stumps  but misses. Kane would have been gone by a distance  </p>]'
p1545
ssS'17.2'
p1546
(dp1547
g3
S'Guptill'
p1548
sg5
S'no run'
p1549
sg7
S' Ashwin'
p1550
sg9
S'\ntries to tuck this round the corner  but backward square into play  </p>]'
p1551
ssS'17.3'
p1552
(dp1553
g3
S'Guptill'
p1554
sg5
S'1 run'
p1555
sg7
S' Ashwin'
p1556
sg9
S'\ndriven down to long-on for a single  </p>]'
p1557
ssS'17.1'
p1558
(dp1559
g3
S'Williamson'
p1560
sg5
S'1 run'
p1561
sg7
S' Ashwin'
p1562
sg9
S'\nnurdled down to long-on for one  </p>]'
p1563
ssS'17.6'
p1564
(dp1565
g3
S'Guptill'
p1566
sg5
S'1 run'
p1567
sg7
S' Ashwin'
p1568
sg9
S'\nplayed away to the leg side for one and to retain the strike  </p>]'
p1569
ssS'36.3'
p1570
(dp1571
g3
S'Guptill'
p1572
sg5
S'1 run'
p1573
sg7
S' Mohammed Shami'
p1574
sg9
S'\nfull just outside off as Guptill is able to squeeze this out to the off side  </p>]'
p1575
ssS'17.4'
p1576
(dp1577
g3
S'Williamson'
p1578
sg5
g121
sg7
S' Ashwin'
p1579
sg9
S'\nshuffles a bit towards middle as he sweeps this one fine past backward square to the boundary  </p>]'
p1580
ssS'17.5'
p1581
(dp1582
g3
S'Williamson'
p1583
sg5
S'1 run'
p1584
sg7
S' Ashwin'
p1585
sg9
S'\nplayed with soft hands towards point before setting off for one  </p>]'
p1586
ssS'47.1'
p1587
(dp1588
g3
S'McClenaghan'
p1589
sg5
S'no run'
p1590
sg7
S' Mohammed Shami'
p1591
sg9
S'\nshuffles over before attempting a paddle over fine leg  </p>]'
p1592
ssS'47.3'
p1593
(dp1594
g3
S'Bennett'
p1595
sg5
S'no run'
p1596
sg7
S' Mohammed Shami'
p1597
sg9
S'\ndefends this one back to the bower  who then fires in a throw at the non-strikers  </p>]'
p1598
ssS'36.2'
p1599
(dp1600
g3
S'Guptill'
p1601
sg5
g661
sg7
S' Mohammed Shami'
p1602
sg9
S'\ntests him with a short one as Guptill  who has a hundred under his belt  is not about to miss this as he unleashed as emphatic pull through midwicket  </p>]'
p1603
ssS'47.5'
p1604
(dp1605
g3
S'Bennett'
p1606
sg5
S'1 run'
p1607
sg7
S' Mohammed Shami'
p1608
sg9
S'\nchops this one away behind square for a single  </p>]'
p1609
ssS'47.2'
p1610
(dp1611
g3
S'McClenaghan'
p1612
sg5
g14
sg7
S' Mohammed Shami'
p1613
sg9
S'\nlobs this one behind point on the off side  but Jadeja is in the vicinity to take a forward diving catch  and hold on the chance  </p>]'
p1614
ssS'47.6'
p1615
(dp1616
g3
S'Southee'
p1617
sg5
g661
sg7
S' Mohammed Shami'
p1618
sg9
S'\nthis time goes for the back of a length ball down the pads as this is parried over  with Bhuvi at deep fine leg  who is in position to take the catch  but the ball ends up bouncing off his hands over the rope. Signalled six by the umpire  </p>]'
p1619
ssS'46.4'
p1620
(dp1621
g3
S'Southee'
p1622
sg5
S'no run'
p1623
sg7
S' Kumar'
p1624
sg9
S'\nlooking to push forward as Bhuvi fires in a bouncer  which the batsman misses  </p>]'
p1625
ssS'46.5'
p1626
(dp1627
g3
S'Southee'
p1628
sg5
S'1 run'
p1629
sg7
S' Kumar'
p1630
sg9
S'\nslower ball which he is able to get some bat ion as they picked up a single  </p>]'
p1631
ssS'46.6'
p1632
(dp1633
g3
S'McClenaghan'
p1634
sg5
S'1 run  </p>]'
p1635
sg7
S' Kumar'
p1636
sg9
g135
ssS'46.1'
p1637
(dp1638
g3
S'McClenaghan'
p1639
sg5
S'1 run'
p1640
sg7
S' Kumar'
p1641
sg9
S'\ntucked round the corner to fine leg by McClenaghan  </p>]'
p1642
ssS'46.2'
p1643
(dp1644
g3
S'Southee'
p1645
sg5
S'no run'
p1646
sg7
S' Kumar'
p1647
sg9
S'\ntries to get this one away through the leg side  </p>]'
p1648
ssS'5.1'
p1649
(dp1650
g3
S'Williamson'
p1651
sg5
S'1 run'
p1652
sg7
S' Mohammed Shami'
p1653
sg9
S'\nstraying down the pads again as Kane swivels to pull this one fine  but deep fine leg has been placed in a finer position to tackle these kind of shorts  </p>]'
p1654
ssS'5.3'
p1655
(dp1656
g3
S'Guptill'
p1657
sg5
S'1 leg bye'
p1658
sg7
S' Mohammed Shami'
p1659
sg9
S'\nanother delivery slanting down the pads as Guptill fails to get this away  but still runs the leg-bye  </p>]'
p1660
ssS'41.1'
p1661
(dp1662
g3
S'Taylor'
p1663
sg5
S'1 run'
p1664
sg7
S' Raina'
p1665
sg9
S'\nruns this one down to long-on for one  </p>]'
p1666
ssS'29.5'
p1667
(dp1668
g3
S'Guptill'
p1669
sg5
S'no run'
p1670
sg7
S' Ashwin'
p1671
sg9
S"\npunched off the back foot  but can't get it past silly mid-on  </p>]"
p1672
ssS'5.4'
p1673
(dp1674
g3
S'Williamson'
p1675
sg5
S'no run'
p1676
sg7
S' Mohammed Shami'
p1677
sg9
S'\nlength ball shaping away outside off as Guptill is equal to the task  </p>]'
p1678
ssS'29.6'
p1679
(dp1680
g3
S'Guptill'
p1681
sg5
S'no run'
p1682
sg7
S' Ashwin'
p1683
sg9
S'\nthis time driven to short cover point to bring the 30th over to an end  </p>]'
p1684
ssS'29.1'
p1685
(dp1686
g3
S'Williamson'
p1687
sg5
S'1 run'
p1688
sg7
S' Ashwin'
p1689
sg9
S'\nadvances down to play this one to long-on  </p>]'
p1690
ssS'29.3'
p1691
(dp1692
g3
S'Guptill'
p1693
sg5
S'1 run'
p1694
sg7
S' Ashwin'
p1695
sg9
S'\nplayed on the front foot behind square  </p>]'
p1696
ssS'29.2'
p1697
(dp1698
g3
S'Guptill'
p1699
sg5
S'2 runs'
p1700
sg7
S' Ashwin'
p1701
sg9
S'\nthis time eases this leg side delivery towards fine leg  with backward square able to rein it in time  </p>]'
p1702
ssS'15.1'
p1703
(dp1704
g3
S'Williamson'
p1705
sg5
S'1 run'
p1706
sg7
S' Ashwin'
p1707
sg9
S'\nsteered down to long-on for one  </p>]'
p1708
ssS'15.2'
p1709
(dp1710
g3
S'Guptill'
p1711
sg5
S'no run'
p1712
sg7
S' Ashwin'
p1713
sg9
S"\nturned away to the leg side  but can't get it past backward square  </p>]"
p1714
ssS'15.3'
p1715
(dp1716
g3
S'Guptill'
p1717
sg5
S'1 run'
p1718
sg7
S' Ashwin'
p1719
sg9
S'\nneedled down to long-on for another single  </p>]'
p1720
ssS'15.4'
p1721
(dp1722
g3
S'Williamson'
p1723
sg5
S'no run'
p1724
sg7
S' Ashwin'
p1725
sg9
S'\ntries to squirt this one away by using his feet to get this past backward point  but instead succeeds in finding the fielder straightaway  </p>]'
p1726
ssS'5.6'
p1727
(dp1728
g3
S'Williamson'
p1729
sg5
S'no run'
p1730
sg7
S' Mohammed Shami'
p1731
sg9
S"\ngoing down the leg side as this thuds into Kane's right pad  with Shami going for the appeal  but is turned down  </p>]"
p1732
ssS'15.6'
p1733
(dp1734
g3
S'Guptill'
p1735
sg5
S'no run'
p1736
sg7
S' Ashwin'
p1737
sg9
S'\nplayed back down to Ashwin to end the over  </p>]'
p1738
ssS'44.3'
p1739
(dp1740
g3
S'Southee'
p1741
sg5
S'no run'
p1742
sg7
S' Kumar'
p1743
sg9
S'\nnegotiates this one away to the leg side  </p>]'
p1744
ssS'49.4'
p1745
(dp1746
g3
S'Southee'
p1747
sg5
S'no run'
p1748
sg7
S' Mohammed Shami'
p1749
sg9
S'\nthis time tries for the swivel hook but is late on this short one on middle  </p>]'
p1750
ssS'37.20'
p1751
(dp1752
g3
S'Guptill'
p1753
sg5
g6
sg7
S' Jadeja'
p1754
sg9
S'\nstraying down the leg side as Dhoni collects from behind  with the umpire signalling a wide  </p>]'
p1755
ssS'48.2'
p1756
(dp1757
g3
S'Bennett'
p1758
sg5
S'no run'
p1759
sg7
S' Kumar'
p1760
sg9
S'\nslower ball on middle as Bennett once again ducks under it  </p>]'
p1761
ssS'48.3'
p1762
(dp1763
g3
S'Bennett'
p1764
sg5
S'1 run'
p1765
sg7
S' Kumar'
p1766
sg9
S'\nspeared in on the pads as Bennett squeaks this one away leg side for one  </p>]'
p1767
ssS'48.1'
p1768
(dp1769
g3
S'Bennett'
p1770
sg5
S'no run'
p1771
sg7
S' Kumar'
p1772
sg9
S'\nshort of a length and allowed through to the keeper as Bennett offers no shot  </p>]'
p1773
ssS'48.6'
p1774
(dp1775
g3
S'Southee'
p1776
sg5
g661
sg7
S' Kumar'
p1777
sg9
S'\nand Southee just clobbers this back of a length ball to deep midwicket  with this one sailing handsomely over the ropes. Yet another botched attempt by the Orange Brigade  </p>]'
p1778
ssS'48.4'
p1779
(dp1780
g3
S'Southee'
p1781
sg5
g121
sg7
S' Kumar'
p1782
sg9
S'\nslower ball outside off which is heaved away over long-on for a boundary. It also brings up the 300 for NZ  </p>]'
p1783
ssS'48.5'
p1784
(dp1785
g3
S'Southee'
p1786
sg5
S'no run'
p1787
sg7
S' Kumar'
p1788
sg9
S'\ncharges down the track to this back of a length delivery  but ends up getting a deflection off the toe-end behind to the keeper  who is able to stop it  </p>]'
p1789
ssS'47.4'
p1790
(dp1791
g3
S'Bennett'
p1792
sg5
S'no run'
p1793
sg7
S' Mohammed Shami'
p1794
sg9
S'\ndefended away by Bennett  </p>]'
p1795
ss.