(dp0
S'46.6'
p1
(dp2
S'to'
p3
S'Jadeja'
p4
sS'what'
p5
S'no run'
p6
sS'from'
p7
S' McClenaghan'
p8
sS'why'
p9
S'\nMcClenaghan pleads his case while Ronchi looks increasingly bemused. They are still fighting. Fires in a short one which Jadeja seems to have hit as it went through to the keeper  but the umpire has decided not to give it out. Replays  however  show that it was indeed white as both HotSpot and Snicko are showing some positive readings in favour of the bowling side  </p>]'
p10
ssS'33.5'
p11
(dp12
g3
S'Dhoni'
p13
sg5
S'no run'
p14
sg7
S' Bennett'
p15
sg9
S"\ntries to slap this away on the off side  but doesn't get the ball very far  </p>]"
p16
ssS'35.2'
p17
(dp18
g3
S'Dhoni'
p19
sg5
S'no run'
p20
sg7
S' Anderson'
p21
sg9
S'\nends up slapping this back of a length ball straight back to Anderson  who fields it on his follow-through  </p>]'
p22
ssS'35.3'
p23
(dp24
g3
S'Dhoni'
p25
sg5
S'6 run'
p26
sg7
S' Anderson'
p27
sg9
S'\nright in the slot and Dhoni lifts this easily over long-off to bring up a <b>53rd ODI fifty</b>  and an invaluable one for India in terms of the context  </p>]'
p28
ssS'35.1'
p29
(dp30
g3
S'Ashwin'
p31
sg5
S'1 run'
p32
sg7
S' Anderson'
p33
sg9
S'\nbegins with a length ball which is helped to the leg side for a single  </p>]'
p34
ssS'35.6'
p35
(dp36
g3
S'Ashwin'
p37
sg5
S'1 run'
p38
sg7
S' Anderson'
p39
sg9
S'\nAshwin on the back foot as he plays a pick-up shot down to deep square leg  </p>]'
p40
ssS'35.4'
p41
(dp42
g3
S'Dhoni'
p43
sg5
S'OUT'
p44
sg7
S' Anderson'
p45
sg9
S"\nand Southee takes a blinder of a catch at deep square leg as Dhoni is enticed into a pull shot which he has smashed towards that direction  with Southee getting to it before kneeling down and sticking his right hand out to pluck this. Sensational catch to get rid of the Indian captain  and suddenly India's hopes feel dashed  </p>]"
p46
ssS'35.5'
p47
(dp48
g3
S'Jadeja'
p49
sg5
S'1 run'
p50
sg7
S' Anderson'
p51
sg9
S'\nJadeja just pushes this casually towards the leg side for one  </p>]'
p52
ssS'7.2'
p53
(dp54
g3
S'Sharma'
p55
sg5
S'no run'
p56
sg7
S' Bennett'
p57
sg9
S'\ndefends this length ball to the off side  </p>]'
p58
ssS'6.6'
p59
(dp60
g3
S'Dhawan'
p61
sg5
S'no run'
p62
sg7
S' Southee'
p63
sg9
S'\nopens the face to run this down to short third man for one  </p>]'
p64
ssS'12.1'
p65
(dp66
g3
S'Kohli'
p67
sg5
S'no run'
p68
sg7
S' Bennett'
p69
sg9
S'\nKohli has a waft at this back of a length delivery outside off  but is fortunate to not catch an edge  </p>]'
p70
ssS'7.1'
p71
(dp72
g3
S'Sharma'
p73
sg5
S'no run'
p74
sg7
S' Bennett'
p75
sg9
S'\nshort of a length outside off which is parried to the off side  </p>]'
p76
ssS'6.3'
p77
(dp78
g3
S'Sharma'
p79
sg5
S'no run'
p80
sg7
S' Southee'
p81
sg9
S'\nlooks to cut this one away through point  but Kane is all over this  </p>]'
p82
ssS'12.6'
p83
(dp84
g3
S'Kohli'
p85
sg5
S'no run'
p86
sg7
S' Bennett'
p87
sg9
S'\nand he completes yet another maiden over to get his comeback off to a good start as Kohli chooses to leave this one outside off alone  </p>]'
p88
ssS'6.1'
p89
(dp90
g3
S'Sharma'
p91
sg5
S'no run'
p92
sg7
S' Southee'
p93
sg9
S'\nplayed off the back foot to the off side  </p>]'
p94
ssS'12.4'
p95
(dp96
g3
S'Kohli'
p97
sg5
S'no run'
p98
sg7
S' Bennett'
p99
sg9
S'\nplayed away to the fielder at point  </p>]'
p100
ssS'37.1'
p101
(dp102
g3
S'Ashwin'
p103
sg5
S'1 run'
p104
sg7
S' Anderson'
p105
sg9
S'\non the back foot to this shorter one as he pulls it emphatically towards deep fine leg  who fumbles it on the first attempt  </p>]'
p106
ssS'37.2'
p107
(dp108
g3
S'Jadeja'
p109
sg5
S'no run'
p110
sg7
S' Anderson'
p111
sg9
S'\nslower ball tailing towards the leg pad as Jadeja misses the line  with the ball striking that pad  but this was always going down the leg side  </p>]'
p112
ssS'37.3'
p113
(dp114
g3
S'Jadeja'
p115
sg5
S'1 run  </p>]'
p116
sg7
S' Anderson'
p117
sg9
S''
p118
ssS'37.4'
p119
(dp120
g3
S'Ashwin'
p121
sg5
S'4 run'
p122
sg7
S' Anderson'
p123
sg9
S'\ndrags this slower ball down the leg side as Ashwin helps it along to the fine leg boundary  getting it past backward square for good measure  </p>]'
p124
ssS'37.5'
p125
(dp126
g3
S'Ashwin'
p127
sg5
S'1 run'
p128
sg7
S' Anderson'
p129
sg9
S'\nthis time chooses to run it down to third man for one  </p>]'
p130
ssS'37.6'
p131
(dp132
g3
S'Jadeja'
p133
sg5
g122
sg7
S' Anderson'
p134
sg9
S'\nroom outside off  off the back foot  as he glides this to the third man boundary  </p>]'
p135
ssS'41.6'
p136
(dp137
g3
S'Jadeja'
p138
sg5
S'1 run'
p139
sg7
S' Southee'
p140
sg9
S'\nslower ball on the pads as Jadeja helps this down towards mid-on for a single  </p>]'
p141
ssS'10.1'
p142
(dp143
g3
S'Kohli'
p144
sg5
S'no run'
p145
sg7
S' Bennett'
p146
sg9
S'\nback of a length and defended by Kohli to the off side  </p>]'
p147
ssS'10.3'
p148
(dp149
g3
S'Kohli'
p150
sg5
S'no run'
p151
sg7
S' Bennett'
p152
sg9
S'\nKohli exercises good judgment as he lets this one  honing in around off  to go through to the keeper  </p>]'
p153
ssS'10.2'
p154
(dp155
g3
S'Kohli'
p156
sg5
S'no run'
p157
sg7
S' Bennett'
p158
sg9
S'\nallows this shorter one to rush past him to the keeper  </p>]'
p159
ssS'10.5'
p160
(dp161
g3
S'Kohli'
p162
sg5
S'no run'
p163
sg7
S' Bennett'
p164
sg9
S'\nspears one in on and around off as this is pummeled back to the bowler  with the crowd uttering a collective gasp  </p>]'
p165
ssS'10.4'
p166
(dp167
g3
S'Kohli'
p168
sg5
S'no run'
p169
sg7
S' Bennett'
p170
sg9
S'\ndefended solidly on the front foot by Kohli  </p>]'
p171
ssS'10.6'
p172
(dp173
g3
S'Kohli'
p174
sg5
S'no run'
p175
sg7
S' Bennett'
p176
sg9
S'\nwell bowled by Bennett as he finishes off the over as a maiden  </p>]'
p177
ssS'37.30'
p178
(dp179
g3
S'Jadeja'
p180
sg5
S'1 wide'
p181
sg7
S' Anderson'
p182
sg9
S'\ntries to tease him with another short one down the leg side  but is called a wide once more  with Anderson unimpressed as he grumbles back to his mark  </p>]'
p183
ssS'43.1'
p184
(dp185
g3
S'Jadeja'
p186
sg5
S'no run'
p187
sg7
S' Bennett'
p188
sg9
S'\nbegins with a short one which has Jadeja trying in vain to ramp it over the slips  </p>]'
p189
ssS'33.3'
p190
(dp191
g3
S'Ashwin'
p192
sg5
g122
sg7
S' Bennett'
p193
sg9
S'\nlength on the pads which is timed beautifully down to deep midwicket for a boundary  </p>]'
p194
ssS'44.6'
p195
(dp196
g3
S'Jadeja'
p197
sg5
S'1 run'
p198
sg7
S' NL McCullum'
p199
sg9
S'\npress forward and played with the soft hands for a single  </p>]'
p200
ssS'16.6'
p201
(dp202
g3
S'Raina'
p203
sg5
S'no run'
p204
sg7
S' Bennett'
p205
sg9
S"\npushes this one off the back foot to the leg side  but can't pinch a single  </p>]"
p206
ssS'16.5'
p207
(dp208
g3
S'Raina'
p209
sg5
S'no run'
p210
sg7
S' Bennett'
p211
sg9
S'\nonce again defended by Raina  </p>]'
p212
ssS'16.4'
p213
(dp214
g3
S'Raina'
p215
sg5
S'no run'
p216
sg7
S' Bennett'
p217
sg9
S'\non the back foot to this short one from Bennett  </p>]'
p218
ssS'16.3'
p219
(dp220
g3
S'Rahane'
p221
sg5
S'1 run'
p222
sg7
S' Bennett'
p223
sg9
S'\neases this one off the back foot behind square on the leg side  </p>]'
p224
ssS'16.2'
p225
(dp226
g3
S'Rahane'
p227
sg5
S'no run'
p228
sg7
S' Bennett'
p229
sg9
S'\ngoes for an ambitious cut outside off as Bennett beats him for pace  </p>]'
p230
ssS'16.1'
p231
(dp232
g3
S'Rahane'
p233
sg5
S'no run'
p234
sg7
S' Bennett'
p235
sg9
S'\nback of a length outside off which is played towards the off side  </p>]'
p236
ssS'44.1'
p237
(dp238
g3
S'Ashwin'
p239
sg5
g26
sg7
S' NL McCullum'
p240
sg9
S'\nAshwin where did that come from? He just steps down the track to heave Nathan well over the corporate boxes for a fantastic six! This one just seemed to climb and climb  </p>]'
p241
ssS'43.2'
p242
(dp243
g3
S'Jadeja'
p244
sg5
g122
sg7
S' Bennett'
p245
sg9
S'\nshort and slanting away as Jadeja is able to get under this and ramp it wide of third man to the rope. Third man puts in a hopeful dive  but that is exactly what it was... hopeful  </p>]'
p246
ssS'43.4'
p247
(dp248
g3
S'Jadeja'
p249
sg5
S'1 run'
p250
sg7
S' Bennett'
p251
sg9
S'\nends up fending away this latest one from Bennett to the leg side  and is able to sneak in quick single as the ball comes to a dead stop away from any close in fielders  </p>]'
p252
ssS'14.4'
p253
(dp254
g3
S'Kohli'
p255
sg5
S'no run'
p256
sg7
S' Bennett'
p257
sg9
S'\nand again gets an inside edge to this one he was looking to open the face to  </p>]'
p258
ssS'45.3'
p259
(dp260
g3
S'Kumar'
p261
sg5
g122
sg7
S' Bennett'
p262
sg9
S'\nshort and just outside off as Kumar is able to bend his back before finessing this past the slip fielder to the third man boundary. Inventive shot that from Bhuvi  </p>]'
p263
ssS'45.2'
p264
(dp265
g3
S'Kumar'
p266
sg5
S'no run'
p267
sg7
S' Bennett'
p268
sg9
S'\nsends a fierce cover drive straight to point  who is able to get behind it  </p>]'
p269
ssS'45.1'
p270
(dp271
g3
S'Jadeja'
p272
sg5
S'1 leg bye'
p273
sg7
S' Bennett'
p274
sg9
S'\nhelped along to the leg side by Jadeja for a single. This brings Bhuvi on strike  </p>]'
p275
ssS'45.6'
p276
(dp277
g3
S'Shami'
p278
sg5
S'no run'
p279
sg7
S' Bennett'
p280
sg9
S'\nfull and straight as Shami just hits this to the leg side  </p>]'
p281
ssS'45.5'
p282
(dp283
g3
S'Jadeja'
p284
sg5
S'1 run'
p285
sg7
S' Bennett'
p286
sg9
S'\nbacks away to get in line with this leg side bound delivery before working it away down to long-on for a single  </p>]'
p287
ssS'45.4'
p288
(dp289
g3
S'Kumar'
p290
sg5
g44
sg7
S' Bennett'
p291
sg9
S"\nback of a length and Kumar has no choice but to go after it  but doesn't quite get enough meat on it as this spoons harmlessly over to the long-on area  with mid-on doubling back to claim this one  </p>]"
p292
ssS'26.6'
p293
(dp294
g3
S'Raina'
p295
sg5
S'2 runs'
p296
sg7
S' NL McCullum'
p297
sg9
S"\nshimmies down the track as he lofts this one towards the gap at deep extra-cover. Doesn't quite get enough on it  however  for it to reach the boundary  </p>]"
p298
ssS'26.4'
p299
(dp300
g3
S'Raina'
p301
sg5
S'no run'
p302
sg7
S' NL McCullum'
p303
sg9
S'\ndefended by Raina on the front foot  </p>]'
p304
ssS'26.5'
p305
(dp306
g3
S'Raina'
p307
sg5
S'no run'
p308
sg7
S' NL McCullum'
p309
sg9
S'\nplayed away to the off side  </p>]'
p310
ssS'26.2'
p311
(dp312
g3
S'Raina'
p313
sg5
S'no run'
p314
sg7
S' NL McCullum'
p315
sg9
S'\nuses his feet to defend this one back to the bowler  </p>]'
p316
ssS'26.3'
p317
(dp318
g3
S'Raina'
p319
sg5
S'2 runs'
p320
sg7
S' NL McCullum'
p321
sg9
S'\ngives this some air as Raina cuts this away to deep point  with a misfield from Guptill affording the second run  </p>]'
p322
ssS'26.1'
p323
(dp324
g3
S'Raina'
p325
sg5
S'no run'
p326
sg7
S' NL McCullum'
p327
sg9
S'\npunched off the back foot straight to short cover point  </p>]'
p328
ssS'14.5'
p329
(dp330
g3
S'Kohli'
p331
sg5
g44
sg7
S' Bennett'
p332
sg9
S'\nand Bennett gets the Big One as he has Kohli  who was looking quite scratchy in his short stint  edge a good length ball from just outside off to the keeper  who takes the catch comfortably. Kohli knows it right away as he trudges back to the keeper  while Bennett kicks off some rather gregarious celebrations from the New Zealanders  </p>]'
p333
ssS'12.3'
p334
(dp335
g3
S'Kohli'
p336
sg5
S'no run'
p337
sg7
S' Bennett'
p338
sg9
S'\nlength ball coming back into Kohli as he is well aware of where his off stump is  </p>]'
p339
ssS'14.6'
p340
(dp341
g3
S'Raina'
p342
sg5
S'1 run'
p343
sg7
S' Bennett'
p344
sg9
S'\ngets a short one from Bennett which hurries on him as this is played away to the leg side  </p>]'
p345
ssS'14.1'
p346
(dp347
g3
S'Kohli'
p348
sg5
S'1 run'
p349
sg7
S' Bennett'
p350
sg9
S'\nrun down to third man for a single  </p>]'
p351
ssS'14.3'
p352
(dp353
g3
S'Kohli'
p354
sg5
S'no run'
p355
sg7
S' Bennett'
p356
sg9
S'\nand Kohli almost spells his own downfall as this is dead-batted by Kohli off the front foot  with the ball just bouncing over the stumps. Could have been really unlucky if it had rolled on somehow  </p>]'
p357
ssS'12.2'
p358
(dp359
g3
S'Kohli'
p360
sg5
S'no run'
p361
sg7
S' Bennett'
p362
sg9
S'\nbowls this one wider outside off  but Kohli can not be coaxed into having a go  </p>]'
p363
ssS'24.4'
p364
(dp365
g3
S'Raina'
p366
sg5
S'no run'
p367
sg7
S' McClenaghan'
p368
sg9
S'\ndriven down firmly to short cover point by Raina  </p>]'
p369
ssS'24.5'
p370
(dp371
g3
S'Raina'
p372
sg5
S'no run'
p373
sg7
S' McClenaghan'
p374
sg9
S"\nRaina tries in vain to angle this one away through point  but can't get it past the fielder  </p>]"
p375
ssS'17.30'
p376
(dp377
g3
S'Rahane'
p378
sg5
g181
sg7
S' Anderson'
p379
sg9
S'\ngets this one down the leg side as the umpire signals a wide  </p>]'
p380
ssS'14.2'
p381
(dp382
g3
S'Rahane'
p383
sg5
S'1 run'
p384
sg7
S' Bennett'
p385
sg9
S'\npushed off the back foot to the leg side for a single  </p>]'
p386
ssS'6.5'
p387
(dp388
g3
S'Dhawan'
p389
sg5
g26
sg7
S' Southee'
p390
sg9
S"\nthis time it is Dhawan's turn to break loose as he shimmies down the track before heaving Southee down the straight boundary for six  </p>]"
p391
ssS'24.2'
p392
(dp393
g3
S'Raina'
p394
sg5
S'no run'
p395
sg7
S' McClenaghan'
p396
sg9
S'\nsteps down the track as he looks to club this over the covers  </p>]'
p397
ssS'24.3'
p398
(dp399
g3
S'Raina'
p400
sg5
S'2 runs'
p401
sg7
S' McClenaghan'
p402
sg9
S'\nshort again and Raina is able to maneuver this through midwicket with a controlled pull  </p>]'
p403
ssS'22.2'
p404
(dp405
g3
S'Dhoni'
p406
sg5
S'2 runs'
p407
sg7
S' McClenaghan'
p408
sg9
S'\nfull from McClenaghan as Dhoni clips this through long-on for a couple  </p>]'
p409
ssS'22.3'
p410
(dp411
g3
S'Dhoni'
p412
sg5
S'no run'
p413
sg7
S' McClenaghan'
p414
sg9
S'\ndriven on the front foot towards short cover  </p>]'
p415
ssS'49.5'
p416
(dp417
g3
S'Jadeja'
p418
sg5
g26
sg7
S' Anderson'
p419
sg9
S'\nJadeja has just transcended a level as he simply hammers this short of a length ball right over the midwicket boundary for a six. The Indian contingent in the crowd go berserk. Now they need just 2 off 1. Can we possibly get a tied game now?  </p>]'
p420
ssS'6.4'
p421
(dp422
g3
S'Sharma'
p423
sg5
S'1 run'
p424
sg7
S' Southee'
p425
sg9
S'\nruns this one down by opening the face to third man  </p>]'
p426
ssS'22.6'
p427
(dp428
g3
S'Dhoni'
p429
sg5
S'1 run'
p430
sg7
S' McClenaghan'
p431
sg9
S'\non the back foot as this is played away behind square on the leg side  </p>]'
p432
ssS'49.2'
p433
(dp434
g3
S'Jadeja'
p435
sg5
S'no run'
p436
sg7
S' Anderson'
p437
sg9
S'\nbacks away but cannot connect as he goes for a hard slap over the covers. Still need 13 off 4  </p>]'
p438
ssS'22.4'
p439
(dp440
g3
S'Dhoni'
p441
sg5
S'no run'
p442
sg7
S' McClenaghan'
p443
sg9
S'\nbowls this a touch straight as Dhoni looks to short-arm pull  </p>]'
p444
ssS'22.5'
p445
(dp446
g3
S'Dhoni'
p447
sg5
S'no run'
p448
sg7
S' McClenaghan'
p449
sg9
S'\ndriven by Dhoni  but is unlucky to find the fielder on the off side  </p>]'
p450
ssS'7.6'
p451
(dp452
g3
S'Sharma'
p453
sg5
g122
sg7
S' Bennett'
p454
sg9
S'\nangling down the pads as Rohit simply helps this along to the fine leg boundary  </p>]'
p455
ssS'43.6'
p456
(dp457
g3
S'Ashwin'
p458
sg5
S'1 run'
p459
sg7
S' Bennett'
p460
sg9
S'\nlow full toss outside off which is worked away down to midwicket for one  </p>]'
p461
ssS'24.6'
p462
(dp463
g3
S'Raina'
p464
sg5
S'1 run'
p465
sg7
S' McClenaghan'
p466
sg9
S'\nspears in a yorker on middle and leg as Raina is able to dig it out towards midwicket  </p>]'
p467
ssS'6.2'
p468
(dp469
g3
S'Sharma'
p470
sg5
S'no run'
p471
sg7
S' Southee'
p472
sg9
S'\nshort one outside off which has Rohit dropping his wrists to  </p>]'
p473
ssS'7.4'
p474
(dp475
g3
S'Sharma'
p476
sg5
g26
sg7
S' Bennett'
p477
sg9
S'\ntoo full from Bennett as Rohit slams him effortlessly to the long-on boundary for his fourth six  </p>]'
p478
ssS'27.60'
p479
(dp480
g3
S'Dhoni'
p481
sg5
g181
sg7
S' Southee'
p482
sg9
S'\ngood bouncer from Southee as this one surprises Dhoni because of the height  </p>]'
p483
ssS'34.6'
p484
(dp485
g3
S'Dhoni'
p486
sg5
S'no run'
p487
sg7
S' NL McCullum'
p488
sg9
S'\npunched off the back foot towards mid-off to end the over  </p>]'
p489
ssS'34.5'
p490
(dp491
g3
S'Dhoni'
p492
sg5
S'no run'
p493
sg7
S' NL McCullum'
p494
sg9
S'\nDhoni ends up playing this low full toss straight back to the bowler  </p>]'
p495
ssS'7.5'
p496
(dp497
g3
S'Sharma'
p498
sg5
S'no run'
p499
sg7
S' Bennett'
p500
sg9
S'\nand follows it up with a crisp back foot drive  but is unlucky to find point  </p>]'
p501
ssS'34.3'
p502
(dp503
g3
S'Dhoni'
p504
sg5
S'1 run'
p505
sg7
S' NL McCullum'
p506
sg9
S'\nsteered away behind square for one  </p>]'
p507
ssS'34.2'
p508
(dp509
g3
S'Dhoni'
p510
sg5
S'no run'
p511
sg7
S' NL McCullum'
p512
sg9
S'\neases this one away to the leg side for one  </p>]'
p513
ssS'34.1'
p514
(dp515
g3
S'Ashwin'
p516
sg5
S'1 run'
p517
sg7
S' NL McCullum'
p518
sg9
S'\ndriven past the bowler to long-on for one  </p>]'
p519
ssS'24.1'
p520
(dp521
g3
S'Raina'
p522
sg5
g122
sg7
S' McClenaghan'
p523
sg9
S'\ngoes for the bait as he attacks this short ball  going for the hook  and Southee  coming in from a squarish position  is unlucky not to get a hand on it. Good fortune there for Raina  </p>]'
p524
ssS'3.6'
p525
(dp526
g3
S'Sharma'
p527
sg5
S'no run'
p528
sg7
S' McClenaghan'
p529
sg9
S'\nstrides out to defend this latest offering  </p>]'
p530
ssS'3.4'
p531
(dp532
g3
S'Sharma'
p533
sg5
S'1 run'
p534
sg7
S' McClenaghan'
p535
sg9
S'\nRohit rocks back to pull this short one from McClenaghan to deep fine leg  with the fielder able to stop it before the boundary  </p>]'
p536
ssS'3.5'
p537
(dp538
g3
S'Dhawan'
p539
sg5
S'1 run'
p540
sg7
S' McClenaghan'
p541
sg9
S'\nclipped off the pads to the leg side for a quick single  </p>]'
p542
ssS'3.2'
p543
(dp544
g3
S'Sharma'
p545
sg5
S'no run'
p546
sg7
S' McClenaghan'
p547
sg9
S"\ndrives this next one solidly to short cover  who throws down the non-striker's stumps  just to make sure there is no funny business going on  </p>]"
p548
ssS'3.3'
p549
(dp550
g3
S'Sharma'
p551
sg5
S'no run'
p552
sg7
S' McClenaghan'
p553
sg9
S'\nonce again Roht into position to keep this one out  </p>]'
p554
ssS'3.1'
p555
(dp556
g3
S'Sharma'
p557
sg5
S'no run'
p558
sg7
S' McClenaghan'
p559
sg9
S'\nfuller one outside off which is defended to the man at point  </p>]'
p560
ssS'2.3'
p561
(dp562
g3
S'Dhawan'
p563
sg5
S'no run'
p564
sg7
S' Southee'
p565
sg9
S'\nnicely push-driven on the up  but straight to extra cover  </p>]'
p566
ssS'2.2'
p567
(dp568
g3
S'Dhawan'
p569
sg5
S'no run'
p570
sg7
S' Southee'
p571
sg9
S"\nsome swing from back of a length  hits Dhawan's thigh pad  </p>]"
p572
ssS'2.1'
p573
(dp574
g3
S'Dhawan'
p575
sg5
S'no run'
p576
sg7
S' Southee'
p577
sg9
S'\nbouncer  at his body  Dhawan ducks under it  </p>]'
p578
ssS'36.6'
p579
(dp580
g3
S'Ashwin'
p581
sg5
S'1 run'
p582
sg7
S' McClenaghan'
p583
sg9
S'\nflicked away to square leg for one to bring the over to an end  </p>]'
p584
ssS'36.1'
p585
(dp586
g3
S'Ashwin'
p587
sg5
S'no run'
p588
sg7
S' McClenaghan'
p589
sg9
S'\ndefends this one to the off side  </p>]'
p590
ssS'2.6'
p591
(dp592
g3
S'Dhawan'
p593
sg5
S'2 runs'
p594
sg7
S' Southee'
p595
sg9
S'\nlength ball on the pads  whipped away through midwicket  </p>]'
p596
ssS'2.5'
p597
(dp598
g3
S'Dhawan'
p599
sg5
g122
sg7
S' Southee'
p600
sg9
S'\nshort  chest-high  Dhawan manages to pull this well  over square leg. Not the best of timings  but still safe enough and far enough  </p>]'
p601
ssS'2.4'
p602
(dp603
g3
S'Dhawan'
p604
sg5
S'no run'
p605
sg7
S' Southee'
p606
sg9
S'\nshort of a length  middle and off  defended from the crease  </p>]'
p607
ssS'20.1'
p608
(dp609
g3
S'Raina'
p610
sg5
S'no run'
p611
sg7
S' McClenaghan'
p612
sg9
S'\nlength outside off which Raina tries to blast over the covers  </p>]'
p613
ssS'20.2'
p614
(dp615
g3
S'Raina'
p616
sg5
S'3 runs'
p617
sg7
S' McClenaghan'
p618
sg9
S'\nshort again from Mitchell as Raina places this down to deep midwicket with a pull that is played into the ground. Anderson does well to track it close to the boundary  and is able to put in a dive just inches before the rope to release it back  with replays confirming that  </p>]'
p619
ssS'20.3'
p620
(dp621
g3
S'Dhoni'
p622
sg5
S'1 run'
p623
sg7
S' McClenaghan'
p624
sg9
S'\nthis time played away to the leg side for a quick single  </p>]'
p625
ssS'20.4'
p626
(dp627
g3
S'Raina'
p628
sg5
S'no run'
p629
sg7
S' McClenaghan'
p630
sg9
S'\nstrides out to meet this one as this is directed towards point  </p>]'
p631
ssS'20.5'
p632
(dp633
g3
S'Raina'
p634
sg5
S'1 run'
p635
sg7
S' McClenaghan'
p636
sg9
S'\nplays this one with soft hands behind square on the leg side  </p>]'
p637
ssS'20.6'
p638
(dp639
g3
S'Dhoni'
p640
sg5
S'1 leg bye'
p641
sg7
S' McClenaghan'
p642
sg9
S'\non the back foot as he whisks this away to the leg side for one  </p>]'
p643
ssS'49.6'
p644
(dp645
g3
S'Jadeja'
p646
sg5
S'1 run'
p647
sg7
S' Anderson'
p648
sg9
S"\nand Jadeja succeeds in getting the tying run as he works this fuller one away towards mid-off  with silly mid-off cutting it off  but unable to stop the single. They don't bother to go back for the second as they know they are still in the series  </p>]"
p649
ssS'46.3'
p650
(dp651
g3
S'Shami'
p652
sg5
S'1 run'
p653
sg7
S' McClenaghan'
p654
sg9
S'\nshortish length angling in on the batsman as Shami plays this with soft hands before setting off for the tight single  with Jadeja all but out if the direct hit had been made  </p>]'
p655
ssS'42.1'
p656
(dp657
g3
S'Jadeja'
p658
sg5
S'1 run'
p659
sg7
S' NL McCullum'
p660
sg9
S'\ncut away on the back foot down to sweeper cover  </p>]'
p661
ssS'22.1'
p662
(dp663
g3
S'Dhoni'
p664
sg5
S'no run'
p665
sg7
S' McClenaghan'
p666
sg9
S'\ndefended by Raina back towards the bowler  </p>]'
p667
ssS'49.20'
p668
(dp669
g3
S'Jadeja'
p670
sg5
g181
sg7
S' Anderson'
p671
sg9
S'\nJadeja thought about shuffling to the leg side  but decides to hold his ground as he sees this short ball slanting down the leg side. Umpire calls a wide  and NZ have a hissy fit  </p>]'
p672
ssS'49.3'
p673
(dp674
g3
S'Jadeja'
p675
sg5
S'no run'
p676
sg7
S' Anderson'
p677
sg9
S'\nbacks away but realises the angle is closing in on him as he opens the face to run this to third man  but refuses the single. Looks like he has learned from El Capitano  </p>]'
p678
ssS'39.1'
p679
(dp680
g3
S'Ashwin'
p681
sg5
S'1 run'
p682
sg7
S' Southee'
p683
sg9
S'\nlow full toss which is directed down to long-on  </p>]'
p684
ssS'21.5'
p685
(dp686
g3
S'Raina'
p687
sg5
S'1 run'
p688
sg7
S' Williamson'
p689
sg9
S'\nthis time uses his feet to punch this down the ground to long-off  </p>]'
p690
ssS'49.1'
p691
(dp692
g3
S'Jadeja'
p693
sg5
g122
sg7
S' Anderson'
p694
sg9
S'\nback of a length and just clubbed away by Jadeja to the deep midwicket boundary. Just what India needed. Anderson now under pressure for the remainder of the over  </p>]'
p695
ssS'43.50'
p696
(dp697
g3
S'Ashwin'
p698
sg5
g181
sg7
S' Bennett'
p699
sg9
S'\nfollows Ashwin as he sees him backing away to the leg side  with Ashwin trying to help this over the keeper  but Bowden then surprises most by calling it a wide  it looks like it may have called though because of the height  which is definitely a fair call upon viewing the replay  </p>]'
p700
ssS'40.2'
p701
(dp702
g3
S'Jadeja'
p703
sg5
S'no run'
p704
sg7
S' NL McCullum'
p705
sg9
S'\ngets this one to turn away from Jadeja as he pressed forward to defend  </p>]'
p706
ssS'40.3'
p707
(dp708
g3
S'Jadeja'
p709
sg5
S'1 run'
p710
sg7
S' NL McCullum'
p711
sg9
S'\ngets some turn again outside off as Jadeja cuts this away past point  </p>]'
p712
ssS'40.1'
p713
(dp714
g3
S'Ashwin'
p715
sg5
S'1 run'
p716
sg7
S' NL McCullum'
p717
sg9
S'\ndriven through the off side for one  </p>]'
p718
ssS'40.6'
p719
(dp720
g3
S'Ashwin'
p721
sg5
g122
sg7
S' NL McCullum'
p722
sg9
S'\nand gets the reverse sweep out as Ashwin picks this from outside off and gets it over backward point to find the boundary. Also brings up the <b>fifty</b> for Ashwin  </p>]'
p723
ssS'40.4'
p724
(dp725
g3
S'Ashwin'
p726
sg5
S'1 run'
p727
sg7
S' NL McCullum'
p728
sg9
S'\nAshwin down the track before adjusting to flick this behind square  </p>]'
p729
ssS'40.5'
p730
(dp731
g3
S'Jadeja'
p732
sg5
S'1 run'
p733
sg7
S' NL McCullum'
p734
sg9
S'\neased off the back foot by Jadeja to short third man  </p>]'
p735
ssS'27.3'
p736
(dp737
g3
S'Dhoni'
p738
sg5
S'1 run'
p739
sg7
S' Southee'
p740
sg9
S'\ngoes for the attempted yorker as Dhoni clips this one through midwicket  </p>]'
p741
ssS'27.2'
p742
(dp743
g3
S'Raina'
p744
sg5
S'1 run'
p745
sg7
S' Southee'
p746
sg9
S'\nangles this one outside off to the fielder at third man  </p>]'
p747
ssS'27.1'
p748
(dp749
g3
S'Dhoni'
p750
sg5
S'1 run'
p751
sg7
S' Southee'
p752
sg9
S'\nturns this one away to the leg side for a quick single  </p>]'
p753
ssS'21.6'
p754
(dp755
g3
S'Dhoni'
p756
sg5
S'1 run'
p757
sg7
S' Williamson'
p758
sg9
S'\nplayed away off the back foot by the India captain as the fielder on the leg side makes a mess of it  allowing for a second to be taken  </p>]'
p759
ssS'43.3'
p760
(dp761
g3
S'Jadeja'
p762
sg5
S'no run'
p763
sg7
S' Bennett'
p764
sg9
S"\nfull and on the pads as Jadeja had no idea where that had gone  but he still goes for the run when he sees Ashwin hustling to the other end  who puts in a dive as he sees the close in fielder make an under-arm attempt at the striker's end.  </p>]"
p765
ssS'27.6'
p766
(dp767
g3
S'Dhoni'
p768
sg5
S'no run'
p769
sg7
S' Southee'
p770
sg9
S'\nand is able to finish off the over with a dot ball  </p>]'
p771
ssS'27.5'
p772
(dp773
g3
S'Ashwin'
p774
sg5
S'1 run'
p775
sg7
S' Southee'
p776
sg9
S'\nlow full toss which is clipped to midwicket  </p>]'
p777
ssS'27.4'
p778
(dp779
g3
S'Raina'
p780
sg5
g44
sg7
S' Southee'
p781
sg9
S'\nand there goes Raina in trademark style as he goes for the pull but gets a feather of an edge on it which carries to Ronchi behind  </p>]'
p782
ssS'21.1'
p783
(dp784
g3
S'Dhoni'
p785
sg5
S'no run'
p786
sg7
S' Williamson'
p787
sg9
S'\nbegins with one that is turned away to the leg side  </p>]'
p788
ssS'42.2'
p789
(dp790
g3
S'Ashwin'
p791
sg5
S'1 run'
p792
sg7
S' NL McCullum'
p793
sg9
S'\nlooks to paddle this one fine  but ends up hitting a bit more squarer than he wanted  </p>]'
p794
ssS'12.5'
p795
(dp796
g3
S'Kohli'
p797
sg5
S'no run'
p798
sg7
S' Bennett'
p799
sg9
S'\nshort of a length outside off which is again played towards point  </p>]'
p800
ssS'42.4'
p801
(dp802
g3
S'Ashwin'
p803
sg5
S'1 bye'
p804
sg7
S' NL McCullum'
p805
sg9
S'\n<b>missed stumping</b> what are you doing NZ? now Ronchi misses a dolly of a stumping as Ashwin advances down the track but plays the wrong line  </p>]'
p806
ssS'30.4'
p807
(dp808
g3
S'Ashwin'
p809
sg5
S'no run'
p810
sg7
S' NL McCullum'
p811
sg9
S'\nlooks to cut this away off the back foot through point  </p>]'
p812
ssS'42.6'
p813
(dp814
g3
S'Ashwin'
p815
sg5
S'no run'
p816
sg7
S' NL McCullum'
p817
sg9
S'\npitches this one outside leg as this strikes  with Nathan going for an appeal  but the umpire is not at all interested  </p>]'
p818
ssS'17.60'
p819
(dp820
g3
S'Dhoni'
p821
sg5
g181
sg7
S' Anderson'
p822
sg9
g118
ssS'25.1'
p823
(dp824
g3
S'Raina'
p825
sg5
S'1 leg bye'
p826
sg7
S' Southee'
p827
sg9
S'\nstrays down the leg side as Raina gets a bat on it before setting off for a quick single  </p>]'
p828
ssS'25.3'
p829
(dp830
g3
S'Dhoni'
p831
sg5
S'1 run'
p832
sg7
S' Southee'
p833
sg9
S'\nfollows this short  leg side bound delivery as he helps it along to fine leg  </p>]'
p834
ssS'25.2'
p835
(dp836
g3
S'Dhoni'
p837
sg5
S'no run  </p>]'
p838
sg7
S' Southee'
p839
sg9
g118
ssS'25.5'
p840
(dp841
g3
S'Dhoni'
p842
sg5
g122
sg7
S' Southee'
p843
sg9
S'\nshort from Southee and pulled away comfortably by Dhoni through the gap in fine leg  </p>]'
p844
ssS'25.4'
p845
(dp846
g3
S'Raina'
p847
sg5
S'1 run'
p848
sg7
S' Southee'
p849
sg9
S'\nglanced down to fine leg with ease by Raina  </p>]'
p850
ssS'25.6'
p851
(dp852
g3
S'Dhoni'
p853
sg5
S'no run'
p854
sg7
S' Southee'
p855
sg9
S'\ndefended off the back foot to bring the 26th over to an end  </p>]'
p856
ssS'21.2'
p857
(dp858
g3
S'Dhoni'
p859
sg5
S'1 run'
p860
sg7
S' Williamson'
p861
sg9
S'\nDhoni on the back foot as he whips this away to midwicket  </p>]'
p862
ssS'28.6'
p863
(dp864
g3
S'Dhoni'
p865
sg5
S'1 run'
p866
sg7
S' NL McCullum'
p867
sg9
S'\nflatter one from Nathan which is turned away to the leg side  </p>]'
p868
ssS'23.6'
p869
(dp870
g3
S'Dhoni'
p871
sg5
g26
sg7
S' Williamson'
p872
sg9
S'\nDhoni is dragging this match on as he pummels yet another six  this time over square leg  as he tries in vain to keep abreast with the required rate  </p>]'
p873
ssS'23.5'
p874
(dp875
g3
S'Raina'
p876
sg5
S'1 run'
p877
sg7
S' Williamson'
p878
sg9
S'\nRaina helps this away on the leg side for one  </p>]'
p879
ssS'23.4'
p880
(dp881
g3
S'Raina'
p882
sg5
S'no run'
p883
sg7
S' Williamson'
p884
sg9
S"\nuses his feet but can't get this drive past short cover  </p>]"
p885
ssS'23.3'
p886
(dp887
g3
S'Dhoni'
p888
sg5
S'1 run'
p889
sg7
S' Williamson'
p890
sg9
S'\nthis time swept round the corner for one  </p>]'
p891
ssS'23.2'
p892
(dp893
g3
S'Raina'
p894
sg5
S'1 run'
p895
sg7
S' Williamson'
p896
sg9
S'\ntucked away to the leg side for a single  </p>]'
p897
ssS'23.1'
p898
(dp899
g3
S'Dhoni'
p900
sg5
S'1 run'
p901
sg7
S' Williamson'
p902
sg9
S'\nand Dhoni charges him once more as he looks to clear midwicket  but instead hits this more towards square leg  </p>]'
p903
ssS'32.1'
p904
(dp905
g3
S'Dhoni'
p906
sg5
S'no run'
p907
sg7
S' NL McCullum'
p908
sg9
S'\nNathan continues to keep it tight as this is played back to him  </p>]'
p909
ssS'32.3'
p910
(dp911
g3
S'Dhoni'
p912
sg5
S'no run'
p913
sg7
S' NL McCullum'
p914
sg9
S'\nlooks to ease this one through the leg side  but silly mid-on is all over it  </p>]'
p915
ssS'32.2'
p916
(dp917
g3
S'Dhoni'
p918
sg5
S'2 runs'
p919
sg7
S' NL McCullum'
p920
sg9
S'\nthis time looks to turn it away round the corner  and is afforded the second when the first fielder approaching it fails to pick it up  </p>]'
p921
ssS'32.5'
p922
(dp923
g3
S'Ashwin'
p924
sg5
S'1 run'
p925
sg7
S' NL McCullum'
p926
sg9
S'\neased down to long-on for a single  </p>]'
p927
ssS'32.4'
p928
(dp929
g3
S'Dhoni'
p930
sg5
S'1 run'
p931
sg7
S' NL McCullum'
p932
sg9
S"\nfull on Dhoni's feet as he flicks this one to square leg  looking for the second  but Ashwin ends up slipping at the other end  and Dhoni  who is halfway down the track  has to run back at full tilt to make his ground before the incoming throw  </p>]"
p933
ssS'32.6'
p934
(dp935
g3
S'Dhoni'
p936
sg5
S'no run'
p937
sg7
S' NL McCullum'
p938
sg9
S'\ndefended by Dhoni to the leg side to bring the over to an end  </p>]'
p939
ssS'33.4'
p940
(dp941
g3
S'Ashwin'
p942
sg5
S'1 run'
p943
sg7
S' Bennett'
p944
sg9
S"\ntries for the pick up shot through the square leg to this shorter one from Bennett  but this one doesn't quite go the distance as it spoons towards square leg  </p>]"
p945
ssS'19.4'
p946
(dp947
g3
S'Dhoni'
p948
sg5
S'no run'
p949
sg7
S' Anderson'
p950
sg9
S'\ntries to play a flick to this slanting delivery  but ends up missing the ball  </p>]'
p951
ssS'33.6'
p952
(dp953
g3
S'Dhoni'
p954
sg5
S'no run'
p955
sg7
S' Bennett'
p956
sg9
S'\nfull and angling in as Dhoni pushes this to mid-off  </p>]'
p957
ssS'18.60'
p958
(dp959
g3
S'Raina'
p960
sg5
g181
sg7
S' Bennett'
p961
sg9
S'\ntries out a shorter one on Raina as the umpire calls a wide for height  </p>]'
p962
ssS'33.1'
p963
(dp964
g3
S'Ashwin'
p965
sg5
S'no run'
p966
sg7
S' Bennett'
p967
sg9
S'\nback of a length and rushing past Ashwin to the keeper  </p>]'
p968
ssS'33.2'
p969
(dp970
g3
S'Ashwin'
p971
sg5
S'no run'
p972
sg7
S' Bennett'
p973
sg9
S'\ndefended straight to the man at mid-on  </p>]'
p974
ssS'19.5'
p975
(dp976
g3
S'Dhoni'
p977
sg5
S'no run'
p978
sg7
S' Anderson'
p979
sg9
S'\nonce again content to let this one through to the keeper  </p>]'
p980
ssS'19.6'
p981
(dp982
g3
S'Dhoni'
p983
sg5
S'no run'
p984
sg7
S' Anderson'
p985
sg9
S'\nanother let through to the keeper to end the over  </p>]'
p986
ssS'27.20'
p987
(dp988
g3
S'Raina'
p989
sg5
g181
sg7
S' Southee'
p990
sg9
S'\ndown the leg side as Raina goes for a hook  with the ball continuing through to the keeper. Southee appeals but the umpire signals a wide. Replays show that there may have contact with the bottom of the glove  but hard to determine  </p>]'
p991
ssS'49.40'
p992
(dp993
g3
S'Jadeja'
p994
sg5
g181
sg7
S' Anderson'
p995
sg9
S'\nan attempted yorker speared down the leg side as he gets well out of its way  with the umpire calling yet another wide  </p>]'
p996
ssS'29.4'
p997
(dp998
g3
S'Ashwin'
p999
sg5
g122
sg7
S' Southee'
p1000
sg9
S'\ntests him with a short one as Ashwin gets on the back foot to hook this  with Anderson running full tilt to his right before going for the desperate dive  but the ball beats him to the boundary. Excellent effort that from Corey  </p>]'
p1001
ssS'39.6'
p1002
(dp1003
g3
S'Jadeja'
p1004
sg5
g26
sg7
S' Southee'
p1005
sg9
S'\nSouthee misses his mark just slightly as Jadeja is afforded the room he needs to lift this over long-off for a six. India not giving up just yet  </p>]'
p1006
ssS'39.4'
p1007
(dp1008
g3
S'Ashwin'
p1009
sg5
S'1 run'
p1010
sg7
S' Southee'
p1011
sg9
S'\nanother full one as he looks to hone in on his yorkers  with this one clipped uppishly through square leg  </p>]'
p1012
ssS'39.5'
p1013
(dp1014
g3
S'Jadeja'
p1015
sg5
S'no run'
p1016
sg7
S' Southee'
p1017
sg9
S'\nsuccessfully dug out by Jadeja as Southee finally finds the perfect yorker  </p>]'
p1018
ssS'39.2'
p1019
(dp1020
g3
S'Jadeja'
p1021
sg5
S'1 run'
p1022
sg7
S' Southee'
p1023
sg9
S'\nanother low full toss which Jadeja eases to the leg side for one  </p>]'
p1024
ssS'39.3'
p1025
(dp1026
g3
S'Ashwin'
p1027
sg5
g122
sg7
S' Southee'
p1028
sg9
S'\nemploys the bouncer as Ashwin is able to get under it and help it over the keeper to the fine leg boundary  </p>]'
p1029
ssS'19.1'
p1030
(dp1031
g3
S'Dhoni'
p1032
sg5
S'no run'
p1033
sg7
S' Anderson'
p1034
sg9
S'\nlength outside off which is left well alone by Dhoni  </p>]'
p1035
ssS'8.1'
p1036
(dp1037
g3
S'Dhawan'
p1038
sg5
S'no run'
p1039
sg7
S' Southee'
p1040
sg9
S'\non the front foot as this is defended to the off side  </p>]'
p1041
ssS'21.4'
p1042
(dp1043
g3
S'Raina'
p1044
sg5
g122
sg7
S' Williamson'
p1045
sg9
S'\ntoo wide from Williamson as he is able to pick the gap at third man to run this down to the boundary  </p>]'
p1046
ssS'8.3'
p1047
(dp1048
g3
S'Dhawan'
p1049
sg5
S'no run'
p1050
sg7
S' Southee'
p1051
sg9
S'\nbrings this one close to Dhawan as he looks to cut this away  </p>]'
p1052
ssS'8.2'
p1053
(dp1054
g3
S'Dhawan'
p1055
sg5
S'no run'
p1056
sg7
S' Southee'
p1057
sg9
S'\nback of a length which is cut away to silly point  </p>]'
p1058
ssS'8.5'
p1059
(dp1060
g3
S'Dhawan'
p1061
sg5
g122
sg7
S' Southee'
p1062
sg9
S'\nand again four more as he shuffles down to take this low full toss outside off and drive it handsomely through the same region for another boundary  </p>]'
p1063
ssS'8.4'
p1064
(dp1065
g3
S'Dhawan'
p1066
sg5
g122
sg7
S' Southee'
p1067
sg9
S'\nand this time he is able to pierce the gap by unfurling a drive through extra-cover  </p>]'
p1068
ssS'21.3'
p1069
(dp1070
g3
S'Raina'
p1071
sg5
S'no run'
p1072
sg7
S' Williamson'
p1073
sg9
S'\ngets forward to defend this one towards point  </p>]'
p1074
ssS'8.6'
p1075
(dp1076
g3
S'Dhawan'
p1077
sg5
S'1 run'
p1078
sg7
S' Southee'
p1079
sg9
S'\nable to ease this shortish length ball down to third man for a single  </p>]'
p1080
ssS'19.3'
p1081
(dp1082
g3
S'Dhoni'
p1083
sg5
S'no run'
p1084
sg7
S' Anderson'
p1085
sg9
S'\nand sensibly follows that up with a checked drive back towards the bowler  </p>]'
p1086
ssS'44.4'
p1087
(dp1088
g3
S'Ashwin'
p1089
sg5
S'no run'
p1090
sg7
S' NL McCullum'
p1091
sg9
S'\nprods forward to defend this one from Nathan  </p>]'
p1092
ssS'42.5'
p1093
(dp1094
g3
S'Jadeja'
p1095
sg5
S'1 run'
p1096
sg7
S' NL McCullum'
p1097
sg9
S'\npunched off the back to midwicket for a single  </p>]'
p1098
ssS'30.3'
p1099
(dp1100
g3
S'Dhoni'
p1101
sg5
S'1 run'
p1102
sg7
S' NL McCullum'
p1103
sg9
S'\ndrives this one to the off side as he sets off  with Ashwin hesitating on the run before continuing to his end  </p>]'
p1104
ssS'44.5'
p1105
(dp1106
g3
S'Ashwin'
p1107
sg5
g44
sg7
S' NL McCullum'
p1108
sg9
S'\nGuptill. Not sure how to begin here. But. Simply. Amazing. Ashwin belts yet another one over midwicket  and for all accounts this looks as good as gone  but then all of a sudden Guptill displays some brilliance just before the rope as he catches this  with the momentum taking him over the rope  then pops it over to the field of play  before plucking the catch on the good side of the rope to claim it. Ends a fantastic rearguard effort from Ashwin  who has taken the scruff of this match and brought India back into it  </p>]'
p1109
ssS'9.4'
p1110
(dp1111
g3
S'Sharma'
p1112
sg5
S'no run'
p1113
sg7
S' Anderson'
p1114
sg9
S'\ndefends this one on the front foot  </p>]'
p1115
ssS'9.5'
p1116
(dp1117
g3
S'Sharma'
p1118
sg5
S'no run'
p1119
sg7
S' Anderson'
p1120
sg9
S'\ndefends this one off the back foot to the off side  </p>]'
p1121
ssS'9.6'
p1122
(dp1123
g3
S'Sharma'
p1124
sg5
S'2 runs'
p1125
sg7
S' Anderson'
p1126
sg9
S'\nable to run this down through the gap at third man for a couple  </p>]'
p1127
ssS'9.1'
p1128
(dp1129
g3
S'Dhawan'
p1130
sg5
S'no run'
p1131
sg7
S' Anderson'
p1132
sg9
S'\ndefends this first one from Anderson quite comfortably  </p>]'
p1133
ssS'9.2'
p1134
(dp1135
g3
S'Dhawan'
p1136
sg5
g44
sg7
S' Anderson'
p1137
sg9
S"\nadvances down the track as Dhawan decides to go after him  but gets the direction all wrong as he pulls this straight into deep midwicket's throat  with Guptill full stretch as he dove forward to take this catch. You just can't keep him out of the action for long. I suspect Dhoni will not be too pleased with the manner of the dismissal  especially when he had spoke at length after the second ODI about the importance of the top-order to stick around deep into the innings  </p>]"
p1138
ssS'9.3'
p1139
(dp1140
g3
S'Sharma'
p1141
sg5
S'no run'
p1142
sg7
S' Anderson'
p1143
sg9
S'\nRohit looks to guide this one past short third man  but hits it straight to him instead  </p>]'
p1144
ssS'34.4'
p1145
(dp1146
g3
S'Ashwin'
p1147
sg5
S'1 run'
p1148
sg7
S' NL McCullum'
p1149
sg9
S'\nplays this one towards point for one  </p>]'
p1150
ssS'42.3'
p1151
(dp1152
g3
S'Jadeja'
p1153
sg5
S'1 run'
p1154
sg7
S' NL McCullum'
p1155
sg9
S'\n<b>dropped</b> Jadeja given the kind of ball to go after  and he does  and is lucky not to hole out to Southee at long-on as he converges on it before letting this one drop  </p>]'
p1156
ssS'27.30'
p1157
(dp1158
g3
S'Dhoni'
p1159
sg5
g181
sg7
S' Southee'
p1160
sg9
S"\nlength outside off  which is a tad wide  as Bowden is on Southee's case  </p>]"
p1161
ssS'41.5'
p1162
(dp1163
g3
S'Ashwin'
p1164
sg5
S'1 run'
p1165
sg7
S' Southee'
p1166
sg9
S'\nthis time goes straighter as Ashwin clips this low full toss to deep midwicket  </p>]'
p1167
ssS'41.4'
p1168
(dp1169
g3
S'Ashwin'
p1170
sg5
g122
sg7
S' Southee'
p1171
sg9
S'\ndelivers this one outside off as Ashwin sees this early to delay his shot as he just opens the face to run this past the keeper to the boundary  </p>]'
p1172
ssS'41.3'
p1173
(dp1174
g3
S'Jadeja'
p1175
sg5
S'1 run'
p1176
sg7
S' Southee'
p1177
sg9
S'\npulled away through square leg by Jadeja to get a single  </p>]'
p1178
ssS'41.2'
p1179
(dp1180
g3
S'Jadeja'
p1181
sg5
S'2 runs'
p1182
sg7
S' Southee'
p1183
sg9
S'\nright in the blockhole from Southee as Jadeja is able to push this down towards mid-off for one  but a wayward throw back ends up giving them a second as well  much to the delight of the Indian contingent in Auckland  </p>]'
p1184
ssS'30.1'
p1185
(dp1186
g3
S'Dhoni'
p1187
sg5
S'no run'
p1188
sg7
S' NL McCullum'
p1189
sg9
S'\nlooks to belt this one away through the off side  but the timing is off  </p>]'
p1190
ssS'30.6'
p1191
(dp1192
g3
S'Dhoni'
p1193
sg5
S'1 run'
p1194
sg7
S' NL McCullum'
p1195
sg9
S'\nplays this one to the leg side for a quick single  which the pair are able to make  </p>]'
p1196
ssS'44.2'
p1197
(dp1198
g3
S'Ashwin'
p1199
sg5
S'1 run'
p1200
sg7
S' NL McCullum'
p1201
sg9
S'\nnow sensibly taps this one away to the off side for one  </p>]'
p1202
ssS'43.5'
p1203
(dp1204
g3
S'Ashwin'
p1205
sg5
S'no run'
p1206
sg7
S' Bennett'
p1207
sg9
S'\nanother short one which Ashwin tries in vain to ramp  but is not able to  </p>]'
p1208
ssS'28.1'
p1209
(dp1210
g3
S'Ashwin'
p1211
sg5
S'no run'
p1212
sg7
S' NL McCullum'
p1213
sg9
S'\ndefended by Ashwin on the back foot  </p>]'
p1214
ssS'28.2'
p1215
(dp1216
g3
S'Ashwin'
p1217
sg5
S'1 run'
p1218
sg7
S' NL McCullum'
p1219
sg9
S'\nAshwin able to nurdle a single to get Dhoni on strike  </p>]'
p1220
ssS'28.3'
p1221
(dp1222
g3
S'Dhoni'
p1223
sg5
S'1 run'
p1224
sg7
S' NL McCullum'
p1225
sg9
S'\nDhoni slaps this one away through long-off for a single  </p>]'
p1226
ssS'28.4'
p1227
(dp1228
g3
S'Ashwin'
p1229
sg5
S'1 run'
p1230
sg7
S' NL McCullum'
p1231
sg9
S'\nAshwin paddles this away to deep fine leg for one  </p>]'
p1232
ssS'28.5'
p1233
(dp1234
g3
S'Dhoni'
p1235
sg5
S'no run'
p1236
sg7
S' NL McCullum'
p1237
sg9
S'\ndriven back past the bowler on his left  </p>]'
p1238
ssS'7.3'
p1239
(dp1240
g3
S'Sharma'
p1241
sg5
S'no run'
p1242
sg7
S' Bennett'
p1243
sg9
S'\nlooks to turn this one to the leg side  </p>]'
p1244
ssS'15.5'
p1245
(dp1246
g3
S'Raina'
p1247
sg5
S'1 run'
p1248
sg7
S' Anderson'
p1249
sg9
S'\nthis time is able to maneuver this length ball outside off to the leg side for a single  </p>]'
p1250
ssS'19.2'
p1251
(dp1252
g3
S'Dhoni'
p1253
sg5
g26
sg7
S' Anderson'
p1254
sg9
S"\nit doesn't take Dhoni long to tee off as he advances down the track a bit before whacking this over long-on for a huge six  </p>]"
p1255
ssS'38.2'
p1256
(dp1257
g3
S'Ashwin'
p1258
sg5
S'3 runs'
p1259
sg7
S' McClenaghan'
p1260
sg9
S"\nunfurls a lovely cover drive through the off side as Ashwin gets the dive in to help make it three runs as this one doesn't quite reach the extra-cover boundary  </p>]"
p1261
ssS'31.6'
p1262
(dp1263
g3
S'Dhoni'
p1264
sg5
S'1 run'
p1265
sg7
S' Bennett'
p1266
sg9
S'\nfull on the pads as he flicks this one down to deep square leg to retain the strike  </p>]'
p1267
ssS'38.4'
p1268
(dp1269
g3
S'Jadeja'
p1270
sg5
g122
sg7
S' McClenaghan'
p1271
sg9
S'\nshort from McClenaghan as Jadeja pounces on this quickly to dispatch it with a pull through long-on and deep midwicket for a boundary  </p>]'
p1272
ssS'31.4'
p1273
(dp1274
g3
S'Dhoni'
p1275
sg5
S'no run'
p1276
sg7
S' Bennett'
p1277
sg9
S'\ndriven solidly by Dhoni towards mid-off  </p>]'
p1278
ssS'31.5'
p1279
(dp1280
g3
S'Dhoni'
p1281
sg5
S'no run'
p1282
sg7
S' Bennett'
p1283
sg9
S"\ndriven forcibly by Dhoni towards the off side  but he still can't get that single he requires  </p>]"
p1284
ssS'31.2'
p1285
(dp1286
g3
S'Dhoni'
p1287
sg5
S'1 run'
p1288
sg7
S' Bennett'
p1289
sg9
S'\nplays that trademark flick off the back foot behind to fine leg  </p>]'
p1290
ssS'31.3'
p1291
(dp1292
g3
S'Ashwin'
p1293
sg5
S'1 run'
p1294
sg7
S' Bennett'
p1295
sg9
S'\nturned away by Ashwin down to mid-on for a quick single  </p>]'
p1296
ssS'31.1'
p1297
(dp1298
g3
S'Dhoni'
p1299
sg5
S'no run'
p1300
sg7
S' Bennett'
p1301
sg9
S'\nslanting in on middle as Dhoni clips this to the leg side  </p>]'
p1302
ssS'18.1'
p1303
(dp1304
g3
S'Raina'
p1305
sg5
S'no run'
p1306
sg7
S' Bennett'
p1307
sg9
S'\nnegotiated by Raina successfully  </p>]'
p1308
ssS'18.3'
p1309
(dp1310
g3
S'Dhoni'
p1311
sg5
S'no run'
p1312
sg7
S' Bennett'
p1313
sg9
S'\nshort of a length and allowed through to the keeper  </p>]'
p1314
ssS'18.2'
p1315
(dp1316
g3
S'Raina'
p1317
sg5
S'1 run'
p1318
sg7
S' Bennett'
p1319
sg9
S'\nRaina quickly into position to this short one as this is pulled to square leg  </p>]'
p1320
ssS'18.5'
p1321
(dp1322
g3
S'Raina'
p1323
sg5
g122
sg7
S' Bennett'
p1324
sg9
S'\nsheer timing from Raina as he leans into this square drive square for four  </p>]'
p1325
ssS'18.4'
p1326
(dp1327
g3
S'Dhoni'
p1328
sg5
S'1 run'
p1329
sg7
S' Bennett'
p1330
sg9
S'\nthis time on the pads as this is tucked behind to fine leg  </p>]'
p1331
ssS'18.6'
p1332
(dp1333
g3
S'Raina'
p1334
sg5
S'no run'
p1335
sg7
S' Bennett'
p1336
sg9
S'\nand delivers a more accurate bouncer to Raina which has him avoiding this at all costs. Takes some moxy to follow up a wided bouncer with yet another bouncer  </p>]'
p1337
ssS'1.4'
p1338
(dp1339
g3
S'Sharma'
p1340
sg5
S'no run'
p1341
sg7
S' McClenaghan'
p1342
sg9
S'\non a length  middle and leg  defended to leg  </p>]'
p1343
ssS'1.5'
p1344
(dp1345
g3
S'Sharma'
p1346
sg5
S'no run'
p1347
sg7
S' McClenaghan'
p1348
sg9
S"\nshort of a length  wide  left alone. Rohit expects to see outstretched arms at the other end  but he doesn't get the wide call  </p>]"
p1349
ssS'1.6'
p1350
(dp1351
g3
S'Sharma'
p1352
sg5
S'2 runs'
p1353
sg7
S' McClenaghan'
p1354
sg9
S'\nloose drive  in the air  not controlled  but it goes into the gap between cover and mid-off  </p>]'
p1355
ssS'1.1'
p1356
(dp1357
g3
S'Sharma'
p1358
sg5
S'no run'
p1359
sg7
S' McClenaghan'
p1360
sg9
S'\ngets swing first ball  Rohit defends off the front foot  </p>]'
p1361
ssS'1.2'
p1362
(dp1363
g3
S'Sharma'
p1364
sg5
g26
sg7
S' McClenaghan'
p1365
sg9
S'\nbeautiful drive. Leans into a length ball  gets under it  and drives it over mid-off for a flat six. Rohit has come out with a different mindset here  </p>]'
p1366
ssS'1.3'
p1367
(dp1368
g3
S'Sharma'
p1369
sg5
S'no run'
p1370
sg7
S' McClenaghan'
p1371
sg9
S'\ngood comeback from Mitch. This one angles away just outside off  and beats the outside edge as Rohit pokes at it  </p>]'
p1372
ssS'0.1'
p1373
(dp1374
g3
S'Sharma'
p1375
sg5
S'no run'
p1376
sg7
S' Southee'
p1377
sg9
S'\nshort of a length  middle and leg  hits Rohit Sharma on the thigh pad  </p>]'
p1378
ssS'30.2'
p1379
(dp1380
g3
S'Dhoni'
p1381
sg5
S'no run'
p1382
sg7
S' NL McCullum'
p1383
sg9
S'\ndrills this one back to the bowler as they look for the gaps  </p>]'
p1384
ssS'0.3'
p1385
(dp1386
g3
S'Sharma'
p1387
sg5
S'1 run'
p1388
sg7
S' Southee'
p1389
sg9
S'\n<b>dropped</b>. A tough chance. Rohit takes a chance  slashes at a full wide one  Ryder flies at second slip  but manages only a hand to the overhead catch. He almost times this jump to perfection  but the ball hits the right hand as opposed to the middle of the both  </p>]'
p1390
ssS'0.2'
p1391
(dp1392
g3
S'Sharma'
p1393
sg5
S'no run'
p1394
sg7
S' Southee'
p1395
sg9
S'\non a length  into the pads  defended to square leg  </p>]'
p1396
ssS'0.5'
p1397
(dp1398
g3
S'Dhawan'
p1399
sg5
S'1 run'
p1400
sg7
S' Southee'
p1401
sg9
S'\nworked to leg for a single  </p>]'
p1402
ssS'0.4'
p1403
(dp1404
g3
S'Dhawan'
p1405
sg5
S'no run'
p1406
sg7
S' Southee'
p1407
sg9
S"\non middle and leg  that's the line to bowl to Dhawan. He defends  </p>]"
p1408
ssS'30.5'
p1409
(dp1410
g3
S'Ashwin'
p1411
sg5
S'1 run'
p1412
sg7
S' NL McCullum'
p1413
sg9
S'\npushed to the right of Nathan down to long-on  </p>]'
p1414
ssS'0.6'
p1415
(dp1416
g3
S'Sharma'
p1417
sg5
S'1 run'
p1418
sg7
S' Southee'
p1419
sg9
S"\nwide of the crease  angles this in  doesn't get any swing  and is worked away to long leg for one  </p>]"
p1420
ssS'38.3'
p1421
(dp1422
g3
S'Jadeja'
p1423
sg5
S'no run'
p1424
sg7
S' McClenaghan'
p1425
sg9
S'\ngood short ball from McClenaghan as Jadeja ends up withdrawing the shot. He could certainly have chosen to ramp this over the slips  </p>]'
p1426
ssS'36.5'
p1427
(dp1428
g3
S'Ashwin'
p1429
sg5
S'no run'
p1430
sg7
S' McClenaghan'
p1431
sg9
S'\nlooking for the attempted yorker as Ashwin fails to do more with this low full toss  with this one hit towards the leg side in the end  </p>]'
p1432
ssS'38.1'
p1433
(dp1434
g3
S'Ashwin'
p1435
sg5
g122
sg7
S' McClenaghan'
p1436
sg9
S'\nthis time edged past slip for four as McClenaghan is not at all happy with the end result  </p>]'
p1437
ssS'38.6'
p1438
(dp1439
g3
S'Jadeja'
p1440
sg5
S'no run'
p1441
sg7
S' McClenaghan'
p1442
sg9
S'\nslower ball outside off as he looks to slap this away  and after getting bat on it  sets off for a run  but is quickly turned back by Ashwin  </p>]'
p1443
ssS'38.5'
p1444
(dp1445
g3
S'Jadeja'
p1446
sg5
S'no run'
p1447
sg7
S' McClenaghan'
p1448
sg9
S'\nthis time wide outside off as Jadeja misses on an opportunity to find the boundary as he ends up hitting this straight to backward point  </p>]'
p1449
ssS'36.4'
p1450
(dp1451
g3
S'Jadeja'
p1452
sg5
S'1 run'
p1453
sg7
S' McClenaghan'
p1454
sg9
S'\nable to get under this and club it towards deep midwicket for one  </p>]'
p1455
ssS'13.6'
p1456
(dp1457
g3
S'Rahane'
p1458
sg5
S'no run'
p1459
sg7
S' Anderson'
p1460
sg9
S'\nback of a length pushed across Rahane  which is left alone by the batsman  </p>]'
p1461
ssS'13.4'
p1462
(dp1463
g3
S'Rahane'
p1464
sg5
S'no run'
p1465
sg7
S' Anderson'
p1466
sg9
S'\nshort ball on middle and off which Rahane chooses to duck under  </p>]'
p1467
ssS'13.5'
p1468
(dp1469
g3
S'Rahane'
p1470
sg5
S'no run'
p1471
sg7
S' Anderson'
p1472
sg9
S'\ndefended on the front foot by Rahane to the off side  </p>]'
p1473
ssS'13.2'
p1474
(dp1475
g3
S'Rahane'
p1476
sg5
S'no run'
p1477
sg7
S' Anderson'
p1478
sg9
S'\ngets solidly behind this back of a length ball from Anderson  </p>]'
p1479
ssS'13.3'
p1480
(dp1481
g3
S'Rahane'
p1482
sg5
S'no run'
p1483
sg7
S' Anderson'
p1484
sg9
S'\non the front foot as this is played down to mid-off  </p>]'
p1485
ssS'13.1'
p1486
(dp1487
g3
S'Sharma'
p1488
sg5
g44
sg7
S' Anderson'
p1489
sg9
S"\nyou just can't keep that man away from proceedings as Anderson strikes again  getting Rohit to go for a lofted shot through extra-cover  but instead miscues it down to third man  with Bennett taking a safe catch. Ends yet another promising innings from Rohit  who had done all the hard work  but has given it away  </p>]"
p1490
ssS'4.5'
p1491
(dp1492
g3
S'Dhawan'
p1493
sg5
S'no run'
p1494
sg7
S' Southee'
p1495
sg9
S'\nDhawan makes sure to keep this next one out from Southee  </p>]'
p1496
ssS'4.4'
p1497
(dp1498
g3
S'Sharma'
p1499
sg5
S'1 run'
p1500
sg7
S' Southee'
p1501
sg9
S'\nand Rohit gets away with one as he looks for the lofted pull through midwicket to this short one from Southee  but because he had planted his front foot  he was never really in balance for that shot  with the result being a top-edge which lands in no-mans land near where silly mid-off would have been  </p>]'
p1502
ssS'5.2'
p1503
(dp1504
g3
S'Sharma'
p1505
sg5
g26
sg7
S' McClenaghan'
p1506
sg9
S'\ndances down the track before lofting McClenaghan high over long-off for a six. Excellent execution of the stroke  especially in regards to the economy of movement  </p>]'
p1507
ssS'4.6'
p1508
(dp1509
g3
S'Dhawan'
p1510
sg5
S'no run'
p1511
sg7
S' Southee'
p1512
sg9
S'\nends the over with a beauty that rushes past the outside edge on a length  </p>]'
p1513
ssS'4.1'
p1514
(dp1515
g3
S'Dhawan'
p1516
sg5
S'no run'
p1517
sg7
S' Southee'
p1518
sg9
S'\nDhawan watchful as he plays this one back to the bowler  </p>]'
p1519
ssS'5.5'
p1520
(dp1521
g3
S'Sharma'
p1522
sg5
S'1 run'
p1523
sg7
S' McClenaghan'
p1524
sg9
S'\ntries the slower bouncer  slanting to the off side  as Rohit maneuvers this to the leg side with an improvised pull shot  </p>]'
p1525
ssS'4.3'
p1526
(dp1527
g3
S'Dhawan'
p1528
sg5
S'1 run'
p1529
sg7
S' Southee'
p1530
sg9
S'\nthis time plays through the off side with a scrumptious cover drive  but is blocked off by the efforts of mid-off  </p>]'
p1531
ssS'4.2'
p1532
(dp1533
g3
S'Dhawan'
p1534
sg5
g122
sg7
S' Southee'
p1535
sg9
S'\nDhawan punishes Southee for straying on the pads with a lovely pick-up shot through the leg side for a boundary  </p>]'
p1536
ssS'11.4'
p1537
(dp1538
g3
S'Kohli'
p1539
sg5
S'no run'
p1540
sg7
S' Anderson'
p1541
sg9
S'\ntries to guide this one past short third man  but finds the fielder  </p>]'
p1542
ssS'11.5'
p1543
(dp1544
g3
S'Kohli'
p1545
sg5
g122
sg7
S' Anderson'
p1546
sg9
S'\ndriven beautifully by Kohli on the front foot through midwicket to get himself going in Auckland  </p>]'
p1547
ssS'11.6'
p1548
(dp1549
g3
S'Kohli'
p1550
sg5
S'1 run'
p1551
sg7
S' Anderson'
p1552
sg9
S'\nfull on the pads as Kohli clips this to midwicket to end the over  </p>]'
p1553
ssS'11.1'
p1554
(dp1555
g3
S'Sharma'
p1556
sg5
S'no run'
p1557
sg7
S' Anderson'
p1558
sg9
S'\ndefended on the front foot by Rohit  </p>]'
p1559
ssS'11.2'
p1560
(dp1561
g3
S'Sharma'
p1562
sg5
S'1 run'
p1563
sg7
S' Anderson'
p1564
sg9
S'\non the back foot as this is cut away behind square to third man  </p>]'
p1565
ssS'11.3'
p1566
(dp1567
g3
S'Kohli'
p1568
sg5
S'no run'
p1569
sg7
S' Anderson'
p1570
sg9
S'\npresses forward as this is played towards mid-off  </p>]'
p1571
ssS'17.2'
p1572
(dp1573
g3
S'Rahane'
p1574
sg5
S'no run'
p1575
sg7
S' Anderson'
p1576
sg9
S"\npunches this one off the back foot  but can't beat short cover  </p>]"
p1577
ssS'17.3'
p1578
(dp1579
g3
S'Rahane'
p1580
sg5
S'no run'
p1581
sg7
S' Anderson'
p1582
sg9
S'\ndefended by Rahane  </p>]'
p1583
ssS'17.1'
p1584
(dp1585
g3
S'Rahane'
p1586
sg5
S'no run'
p1587
sg7
S' Anderson'
p1588
sg9
S'\ndefended authoritatively by Rahane  </p>]'
p1589
ssS'17.6'
p1590
(dp1591
g3
S'Dhoni'
p1592
sg5
g122
sg7
S' Anderson'
p1593
sg9
S'\nstraying on the pads as Anderson is punished with a little glance to the fine leg boundary  </p>]'
p1594
ssS'36.3'
p1595
(dp1596
g3
S'Ashwin'
p1597
sg5
S'1 run'
p1598
sg7
S' McClenaghan'
p1599
sg9
S'\nangles this one down to mid-on for a quick single  </p>]'
p1600
ssS'17.4'
p1601
(dp1602
g3
S'Rahane'
p1603
sg5
g44
sg7
S' Anderson'
p1604
sg9
S"\nand this time it is Rahane's time to depart as he tickles this leg side delivery from Anderson straight to the waiting paws of Ronchi behind  who doesn't make a mess of it  </p>]"
p1605
ssS'17.5'
p1606
(dp1607
g3
S'Dhoni'
p1608
sg5
S'no run'
p1609
sg7
S' Anderson'
p1610
sg9
S'\nfires this one wide outside off  but a bit too wide as the umpire signals wide  </p>]'
p1611
ssS'47.1'
p1612
(dp1613
g3
S'Shami'
p1614
sg5
S'no run'
p1615
sg7
S' Anderson'
p1616
sg9
S'\nback of a length and wide as Shami fails to put this away  </p>]'
p1617
ssS'47.3'
p1618
(dp1619
g3
S'Shami'
p1620
sg5
S'1 run'
p1621
sg7
S' Anderson'
p1622
sg9
S'\nslower bouncer outside off which is played with soft hands as Kane is on it again  throwing an under-arm throw which again misses. That is his second chance in as many overs  </p>]'
p1623
ssS'36.2'
p1624
(dp1625
g3
S'Ashwin'
p1626
sg5
g122
sg7
S' McClenaghan'
p1627
sg9
S'\nplays a lovely back foot punch behind point  with the timing just right  as this races to the third man boundary  </p>]'
p1628
ssS'47.5'
p1629
(dp1630
g3
S'Shami'
p1631
sg5
g44
sg7
S' Anderson'
p1632
sg9
S'\nanother slower bouncer from Anderson has helped him to a <b>maiden five-wicket haul</b> as Shami  looking for quick runs  ends up hitting this straight up in the air  with point getting under it to take a straightforward catch. NZ on top now as Varun Aaron joins the party  </p>]'
p1633
ssS'47.2'
p1634
(dp1635
g3
S'Shami'
p1636
sg5
S'no run'
p1637
sg7
S' Anderson'
p1638
sg9
S'\ngoes for the big heave but ends up missing this length ball outside off  </p>]'
p1639
ssS'47.6'
p1640
(dp1641
g3
S'Jadeja'
p1642
sg5
S'no run'
p1643
sg7
S' Anderson'
p1644
sg9
S'\ntries out another shorter one outside off as Jadeja tries in vain to ramp this over the slips  </p>]'
p1645
ssS'46.4'
p1646
(dp1647
g3
S'Jadeja'
p1648
sg5
g26
sg7
S' McClenaghan'
p1649
sg9
S'\nright up in the blockhole as Jadeja is able to find enough leverage to clear long-on with the cleanest of strikes. Just what India required at this point as he knew it straightaway upon the ball leaving his bat  </p>]'
p1650
ssS'46.5'
p1651
(dp1652
g3
S'Jadeja'
p1653
sg5
S'no run'
p1654
sg7
S' McClenaghan'
p1655
sg9
S'\nand Jadeja almost gets himself out next ball as McClenaghan favours the slower bouncer this time  with Jadeja having to work this fine towards the keeper as he was cramped for space  but lucky in that the ball died before it reached Ronchi  </p>]'
p1656
ssS'41.40'
p1657
(dp1658
g3
S'Ashwin'
p1659
sg5
g181
sg7
S' Southee'
p1660
sg9
S'\nwell wide outside off as Billy signals to the crowd  </p>]'
p1661
ssS'46.1'
p1662
(dp1663
g3
S'Jadeja'
p1664
sg5
S'1 run'
p1665
sg7
S' McClenaghan'
p1666
sg9
S'\ngets a low full toss screaming down the pads as Jadeja works this away for a single  </p>]'
p1667
ssS'46.2'
p1668
(dp1669
g3
S'Shami'
p1670
sg5
S'no run'
p1671
sg7
S' McClenaghan'
p1672
sg9
S'\nShami fails to tonk this fuller one as it continues on to the keeper  </p>]'
p1673
ssS'5.1'
p1674
(dp1675
g3
S'Sharma'
p1676
sg5
S'no run'
p1677
sg7
S' McClenaghan'
p1678
sg9
S'\ngets behind the line of this back of a length delivery  </p>]'
p1679
ssS'38.20'
p1680
(dp1681
g3
S'Ashwin'
p1682
sg5
g181
sg7
S' McClenaghan'
p1683
sg9
S'\nand McClenaghan needs to get his radar sorted as he gets this one horribly wide  </p>]'
p1684
ssS'5.3'
p1685
(dp1686
g3
S'Sharma'
p1687
sg5
S'no run'
p1688
sg7
S' McClenaghan'
p1689
sg9
S"\neases this one off the pads to the leg side  but can't pinch the single  </p>]"
p1690
ssS'41.1'
p1691
(dp1692
g3
S'Jadeja'
p1693
sg5
S'no run'
p1694
sg7
S' Southee'
p1695
sg9
S'\nshortish length ball which rises on Jadeja as he looks to ramp this over the slips. Ends up being called one for the over  </p>]'
p1696
ssS'29.5'
p1697
(dp1698
g3
S'Ashwin'
p1699
sg5
S'1 run'
p1700
sg7
S' Southee'
p1701
sg9
S'\nthis time is able to turn it away to the leg side for one  </p>]'
p1702
ssS'5.4'
p1703
(dp1704
g3
S'Sharma'
p1705
sg5
g26
sg7
S' McClenaghan'
p1706
sg9
S'\nRohit is simply putting on a clinic here with some neat striking of the ball. McClenaghan delivers a short one which has Rohit quickly into position to hammer this over square leg with a fine pull  </p>]'
p1707
ssS'29.6'
p1708
(dp1709
g3
S'Dhoni'
p1710
sg5
S'1 run'
p1711
sg7
S' Southee'
p1712
sg9
S'\nback of a length which is jabbed away by Dhoni to the off side  </p>]'
p1713
ssS'29.1'
p1714
(dp1715
g3
S'Dhoni'
p1716
sg5
S'no run'
p1717
sg7
S' Southee'
p1718
sg9
S"\nlooks to slap this one away outside off  but can't get it past point  </p>]"
p1719
ssS'48.50'
p1720
(dp1721
g3
S'Jadeja'
p1722
sg5
g181
sg7
S' McClenaghan'
p1723
sg9
S'\nslow bouncer from McClenaghan which has been called wide by the umpire  much to the frustration of the big unit  who has some choice words  </p>]'
p1724
ssS'29.3'
p1725
(dp1726
g3
S'Ashwin'
p1727
sg5
S'no run'
p1728
sg7
S' Southee'
p1729
sg9
S'\ntries to run this one down to third man  but the length was not quite right to do so  </p>]'
p1730
ssS'29.2'
p1731
(dp1732
g3
S'Dhoni'
p1733
sg5
S'1 run'
p1734
sg7
S' Southee'
p1735
sg9
S'\nable to clip this one on the front foot through the leg side for a single  </p>]'
p1736
ssS'15.1'
p1737
(dp1738
g3
S'Raina'
p1739
sg5
S'no run'
p1740
sg7
S' Anderson'
p1741
sg9
S'\nlength ball shaping away into Raina as he blocks it out  </p>]'
p1742
ssS'15.2'
p1743
(dp1744
g3
S'Raina'
p1745
sg5
S'no run'
p1746
sg7
S' Anderson'
p1747
sg9
S'\non the front foot to work this one away to mid-off  </p>]'
p1748
ssS'15.3'
p1749
(dp1750
g3
S'Raina'
p1751
sg5
S'no run'
p1752
sg7
S' Anderson'
p1753
sg9
S"\nRaina tries out his pull to this shorter one  but it didn't seem to quite come on to the bat  </p>]"
p1754
ssS'15.4'
p1755
(dp1756
g3
S'Raina'
p1757
sg5
S'no run'
p1758
sg7
S' Anderson'
p1759
sg9
S'\nand tests him with another short one which has Raina ducking for cover  </p>]'
p1760
ssS'5.6'
p1761
(dp1762
g3
S'Dhawan'
p1763
sg5
S'no run'
p1764
sg7
S' McClenaghan'
p1765
sg9
S'\non the front foot as he looks to get this away on the leg side  </p>]'
p1766
ssS'15.6'
p1767
(dp1768
g3
S'Rahane'
p1769
sg5
S'1 run'
p1770
sg7
S' Anderson'
p1771
sg9
S'\nlength on the pads which is tickled down to fine leg  </p>]'
p1772
ssS'44.3'
p1773
(dp1774
g3
S'Jadeja'
p1775
sg5
S'1 run'
p1776
sg7
S' NL McCullum'
p1777
sg9
S'\neased off the back foot towards backward square for a single  </p>]'
p1778
ssS'49.4'
p1779
(dp1780
g3
S'Jadeja'
p1781
sg5
g122
sg7
S' Anderson'
p1782
sg9
S'\nback of a length as Jadeja improvises a flick that he is able to maneuver to the vacant fine leg region for four  </p>]'
p1783
ssS'48.2'
p1784
(dp1785
g3
S'Jadeja'
p1786
sg5
g26
sg7
S' McClenaghan'
p1787
sg9
S'\nJadeja you beauty! Is able to get under this fuller one from McClenaghan as he clears his front leg before tonking him over midwicket for a huge six  </p>]'
p1788
ssS'48.3'
p1789
(dp1790
g3
S'Jadeja'
p1791
sg5
S'1 run'
p1792
sg7
S' McClenaghan'
p1793
sg9
S'\n<b>dropped</b> Jadeja given a shorter one to go after  and he does  hitting this well over to third man  and Bennett  who is stationed there  comes in to try and take it  but ends up bobbling it as he dives  </p>]'
p1794
ssS'48.1'
p1795
(dp1796
g3
S'Aaron'
p1797
sg5
S'1 run'
p1798
sg7
S' McClenaghan'
p1799
sg9
S'\nAaron does the first job of getting himself to the other end with a glance to the leg side with soft hands  </p>]'
p1800
ssS'48.6'
p1801
(dp1802
g3
S'Aaron'
p1803
sg5
S'no run'
p1804
sg7
S' McClenaghan'
p1805
sg9
S"\nback of a length outside off as Aaron has a flash at it  but doesn't quite get bat on ball  </p>]"
p1806
ssS'48.4'
p1807
(dp1808
g3
S'Aaron'
p1809
sg5
S'1 run'
p1810
sg7
S' McClenaghan'
p1811
sg9
S'\nAaron able to find a single with a dab to the leg side  with Jadeja running like Bolt to the other end  </p>]'
p1812
ssS'48.5'
p1813
(dp1814
g3
S'Jadeja'
p1815
sg5
S'1 run'
p1816
sg7
S' McClenaghan'
p1817
sg9
S'\nanother short one as Jadeja goes after it  not totally in control  but still able to land this pull safely in the square leg region  </p>]'
p1818
ssS'47.4'
p1819
(dp1820
g3
S'Jadeja'
p1821
sg5
S'1 run'
p1822
sg7
S' Anderson'
p1823
sg9
S'\nslaps this short of a length ball away towards long-off  </p>]'
p1824
ss.