(dp0
S'33.5'
p1
(dp2
S'to'
p3
S'Dhoni'
p4
sS'what'
p5
S'1 run'
p6
sS'from'
p7
S' NL McCullum'
p8
sS'why'
p9
S'\non the pads and flicked to short fine leg for a single  </p>]'
p10
ssS'35.2'
p11
(dp12
g3
S'Kohli'
p13
sg5
S'no run'
p14
sg7
S' McClenaghan'
p15
sg9
S'\nthis time drills this straight back to the bowler  who does well to get a hand on it  </p>]'
p16
ssS'35.3'
p17
(dp18
g3
S'Kohli'
p19
sg5
S'2 runs'
p20
sg7
S' McClenaghan'
p21
sg9
S'\nand again he thrashes hard through the covers  but sweeper cover is able to cut it off before the boundary  </p>]'
p22
ssS'35.1'
p23
(dp24
g3
S'Kohli'
p25
sg5
S'4 run'
p26
sg7
S' McClenaghan'
p27
sg9
S'\nand Kohli greets him with a slap through the covers which travels all the way to the extra-cover boundary  </p>]'
p28
ssS'35.6'
p29
(dp30
g3
S'Dhoni'
p31
sg5
S'no run'
p32
sg7
S' McClenaghan'
p33
sg9
S'\noff the back foot and worked down to mid-on by Dhoni  </p>]'
p34
ssS'35.4'
p35
(dp36
g3
S'Kohli'
p37
sg5
g26
sg7
S' McClenaghan'
p38
sg9
S'\nin the slot as Kohli gets under this to clear long-off for a boundary. The bat had turned in his hand at the time of the shot  but he still had enough on it  </p>]'
p39
ssS'35.5'
p40
(dp41
g3
S'Kohli'
p42
sg5
S'1 run'
p43
sg7
S' McClenaghan'
p44
sg9
S'\nand this time he slaps through extra-cover  but deep extra-cover is all over this  </p>]'
p45
ssS'12.3'
p46
(dp47
g3
S'Kohli'
p48
sg5
S'no run'
p49
sg7
S' Anderson'
p50
sg9
S'\nhits across this full length delivery from Anderson. Looks slightly embarrassed as he knew he could have put that away  </p>]'
p51
ssS'6.6'
p52
(dp53
g3
S'Dhawan'
p54
sg5
S'no run'
p55
sg7
S' Southee'
p56
sg9
S'\nfinishes off the over with a push down the ground  </p>]'
p57
ssS'12.1'
p58
(dp59
g3
S'Kohli'
p60
sg5
S'no run'
p61
sg7
S' Anderson'
p62
sg9
S'\nKohli leans into a drive which finds its way to the man at mid-off  </p>]'
p63
ssS'7.1'
p64
(dp65
g3
S'Kohli'
p66
sg5
S'no run'
p67
sg7
S' McClenaghan'
p68
sg9
S'\nfull and just outside off as Kohli fails to get this away  </p>]'
p69
ssS'6.3'
p70
(dp71
g3
S'Dhawan'
p72
sg5
g26
sg7
S' Southee'
p73
sg9
S'\nin complete control of this as he rocks back to pull Southee behind square with a lofted shot that carries to the boundary  </p>]'
p74
ssS'12.6'
p75
(dp76
g3
S'Kohli'
p77
sg5
S'no run'
p78
sg7
S' Anderson'
p79
sg9
S'\nKohli forward in defence as this one is played towards mid-off  </p>]'
p80
ssS'6.1'
p81
(dp82
g3
S'Dhawan'
p83
sg5
S'no run'
p84
sg7
S' Southee'
p85
sg9
S'\nDhawan content to let this one go across him to the keeper  </p>]'
p86
ssS'7.5'
p87
(dp88
g3
S'Kohli'
p89
sg5
g26
sg7
S' McClenaghan'
p90
sg9
S'\nlow full toss which is expertly steered by Kohli to the vacant midwicket region. Kohli is announcing himself on these shores  </p>]'
p91
ssS'37.1'
p92
(dp93
g3
S'Kohli'
p94
sg5
S'1 run'
p95
sg7
S' Southee'
p96
sg9
S'\nback of a length and Kohli skies this one so high as Ryder gets under it  but then at the last moment the ball gets away from him as he fails to grab hold it. Met with a huge cheer from the Indian contingent in Napier. Kohli survives this time  but he could easily have got out in the 90s  again  </p>]'
p97
ssS'37.2'
p98
(dp99
g3
S'Dhoni'
p100
sg5
g26
sg7
S' Southee'
p101
sg9
S'\nDhoni looking to break loose as he is quick onto this one with a pull that he directs wide of mid-on  and travels all the way to the midwicket boundary for four  </p>]'
p102
ssS'37.3'
p103
(dp104
g3
S'Dhoni'
p105
sg5
S'no run'
p106
sg7
S' Southee'
p107
sg9
S'\nshort again from Southee as Dhoni just lets this through to the keeper  </p>]'
p108
ssS'37.4'
p109
(dp110
g3
S'Dhoni'
p111
sg5
S'1 run'
p112
sg7
S' Southee'
p113
sg9
S'\nlength outside off which is cut away by Dhoni through point  but is cut off before the boundary  </p>]'
p114
ssS'37.5'
p115
(dp116
g3
S'Kohli'
p117
sg5
g26
sg7
S' Southee'
p118
sg9
S'\nand Kohli moves up a rung as he pulls off a masterclass of an innings  stroking his way to 100 off 93 balls in his first outing in NZ. Fantastic effort from the young batsman as he goes level with Mark Waugh to get to <b>18 ODI centuries</b> </p>]'
p119
ssS'37.6'
p120
(dp121
g3
S'Kohli'
p122
sg5
S'no run'
p123
sg7
S' Southee'
p124
sg9
S'\nplayed away to the leg side to end the over  </p>]'
p125
ssS'42.3'
p126
(dp127
g3
S'Dhoni'
p128
sg5
S'OUT'
p129
sg7
S' McClenaghan'
p130
sg9
S"\nand Mitchell strikes for New Zealand as he fires in a bouncer which Dhoni seems to be late on as he gets an edge on it before the ball loops over to Ronchi  who takes a good low catch. Dhoni walks off straightaway  and New Zealand's spirits are lifted in turn  </p>]"
p131
ssS'10.1'
p132
(dp133
g3
S'Kohli'
p134
sg5
S'no run'
p135
sg7
S' Anderson'
p136
sg9
S'\nfires this one wide outside off  and full  as Kohli has to stretch out to reach this and guide it towards third man  </p>]'
p137
ssS'10.3'
p138
(dp139
g3
S'Kohli'
p140
sg5
S'no run'
p141
sg7
S' Anderson'
p142
sg9
S'\non the back foot as he plays this one straight to backward point  </p>]'
p143
ssS'10.2'
p144
(dp145
g3
S'Kohli'
p146
sg5
S'no run'
p147
sg7
S' Anderson'
p148
sg9
S'\nallows this one to go through to the keeper  </p>]'
p149
ssS'10.5'
p150
(dp151
g3
S'Kohli'
p152
sg5
S'2 runs'
p153
sg7
S' Anderson'
p154
sg9
S'\nis able to chop this length ball outside off past the keeper  but not as far as the third man rope  </p>]'
p155
ssS'10.4'
p156
(dp157
g3
S'Kohli'
p158
sg5
S'2 runs'
p159
sg7
S' Anderson'
p160
sg9
S'\nnicely times this one off the pads as this screams to the square leg boundary  </p>]'
p161
ssS'10.6'
p162
(dp163
g3
S'Kohli'
p164
sg5
S'no run'
p165
sg7
S' Anderson'
p166
sg9
S'\nfuller one which is defended on the front foot by Kohli to bring the over to an end  </p>]'
p167
ssS'43.1'
p168
(dp169
g3
S'Kohli'
p170
sg5
S'6 run'
p171
sg7
S' NL McCullum'
p172
sg9
S'\nKohli has had enough and goes after Nathan as he just bludgeons this over midwicket for a huge six  </p>]'
p173
ssS'33.3'
p174
(dp175
g3
S'Dhoni'
p176
sg5
S'no run'
p177
sg7
S' NL McCullum'
p178
sg9
S'\nDhoni lurches forward before driving this to short cover point  </p>]'
p179
ssS'41.20'
p180
(dp181
g3
S'Dhoni'
p182
sg5
S'1 wide'
p183
sg7
S' Southee'
p184
sg9
S'\nanother wide outside off as the pressure seems to be getting to him  </p>]'
p185
ssS'44.6'
p186
(dp187
g3
S'Kumar'
p188
sg5
S'no run'
p189
sg7
S' McClenaghan'
p190
sg9
S'\ncarefully negotiates this last one to end a successful over for New Zealand  </p>]'
p191
ssS'16.6'
p192
(dp193
g3
S'Dhawan'
p194
sg5
S'no run'
p195
sg7
S' Anderson'
p196
sg9
S'\npushed to the fielder at short cover to bring the over to an end  </p>]'
p197
ssS'16.5'
p198
(dp199
g3
S'Dhawan'
p200
sg5
S'no run'
p201
sg7
S' Anderson'
p202
sg9
S'\ndefends this one back to the bowler  </p>]'
p203
ssS'16.4'
p204
(dp205
g3
S'Kohli'
p206
sg5
S'1 run'
p207
sg7
S' Anderson'
p208
sg9
S'\nspearing in on middle as Kohli is able to get this away through midwicket  </p>]'
p209
ssS'16.3'
p210
(dp211
g3
S'Kohli'
p212
sg5
S'no run'
p213
sg7
S' Anderson'
p214
sg9
S'\nalmost chops this latest one as Kohli is through the shot early  </p>]'
p215
ssS'16.2'
p216
(dp217
g3
S'Kohli'
p218
sg5
S'no run'
p219
sg7
S' Anderson'
p220
sg9
S'\ndefends this one straight back to the bowler  </p>]'
p221
ssS'16.1'
p222
(dp223
g3
S'Kohli'
p224
sg5
S'no run'
p225
sg7
S' Anderson'
p226
sg9
S'\ngoing round the wicket as Kohli is content to let this through to the keeper  </p>]'
p227
ssS'44.1'
p228
(dp229
g3
S'Kohli'
p230
sg5
g26
sg7
S' McClenaghan'
p231
sg9
S'\nKohli seems to be favouring the midwicket region as he once again lofts one in that direction  with enough power on it for it to reach the boundary. Kohli is truly playing a special knock here in Napier  </p>]'
p232
ssS'43.2'
p233
(dp234
g3
S'Kohli'
p235
sg5
S'no run'
p236
sg7
S' NL McCullum'
p237
sg9
S"\npitched full on middle as Kohli is able to eke this out  but can't beat the inner ring  </p>]"
p238
ssS'40.60'
p239
(dp240
g3
S'Kohli'
p241
sg5
g183
sg7
S' Williamson'
p242
sg9
S'\nwide down the leg side as Kohli lets it go  </p>]'
p243
ssS'43.4'
p244
(dp245
g3
S'Kohli'
p246
sg5
S'1 run'
p247
sg7
S' NL McCullum'
p248
sg9
S'\nworked off the back foot powerfully to deep square leg  </p>]'
p249
ssS'14.4'
p250
(dp251
g3
S'Dhawan'
p252
sg5
S'no run'
p253
sg7
S' Anderson'
p254
sg9
S'\nsolid in defence as he plays this one back to the bowler  </p>]'
p255
ssS'45.3'
p256
(dp257
g3
S'Sharma'
p258
sg5
S'no run'
p259
sg7
S' NL McCullum'
p260
sg9
S'\ntries to get this away on the leg side but ends up hitting it back to the bowler  </p>]'
p261
ssS'45.2'
p262
(dp263
g3
S'Sharma'
p264
sg5
S'no run'
p265
sg7
S' NL McCullum'
p266
sg9
S'\ndefends this one away to the off side  </p>]'
p267
ssS'45.1'
p268
(dp269
g3
S'Ashwin'
p270
sg5
g129
sg7
S' NL McCullum'
p271
sg9
S'\nlooks to squirt this one away behind point  but hits it a bit too well as backward point is quick to pounce on it before throwing this to the keeper who whips off the bails in time before Bhuvi could make his ground. India slowly slipping away in this run chase  </p>]'
p272
ssS'45.6'
p273
(dp274
g3
S'Sharma'
p275
sg5
S'1 run'
p276
sg7
S' NL McCullum'
p277
sg9
S"\nhits this one slightly uppishly to the left of Nathan  who goes for the dive  but can't get close to it  </p>]"
p278
ssS'45.5'
p279
(dp280
g3
S'Ashwin'
p281
sg5
S'1 run'
p282
sg7
S' NL McCullum'
p283
sg9
S'\nplayed carefully off the back foot by Ashwin to the leg side  </p>]'
p284
ssS'45.4'
p285
(dp286
g3
S'Sharma'
p287
sg5
S'1 run'
p288
sg7
S' NL McCullum'
p289
sg9
S'\nthis time is able to roll his wrists to get this to midwicket  </p>]'
p290
ssS'26.6'
p291
(dp292
g3
S'Kohli'
p293
sg5
S'no run'
p294
sg7
S' Milne'
p295
sg9
S'\n128 kph  seems to be sapped of some pace as Kohli defends this last one back to the bowler  </p>]'
p296
ssS'26.4'
p297
(dp298
g3
S'Kohli'
p299
sg5
S'2 runs'
p300
sg7
S' Milne'
p301
sg9
S'\n141 kph  deflects this shorter one fine down the leg side for a couple  </p>]'
p302
ssS'26.5'
p303
(dp304
g3
S'Kohli'
p305
sg5
S'no run'
p306
sg7
S' Milne'
p307
sg9
S'\n142 kph  pushes this one towards point  </p>]'
p308
ssS'26.2'
p309
(dp310
g3
S'Kohli'
p311
sg5
S'1 run'
p312
sg7
S' Milne'
p313
sg9
S'\n140 kph  sensibly flicks Milne towards midwicket for a quick single  </p>]'
p314
ssS'26.3'
p315
(dp316
g3
S'Raina'
p317
sg5
S'1 run'
p318
sg7
S' Milne'
p319
sg9
S'\n129 kph  just guides this slower ball with an angled face down to the fielder at third man  </p>]'
p320
ssS'44.40'
p321
(dp322
g3
S'Kumar'
p323
sg5
g183
sg7
S' McClenaghan'
p324
sg9
S"\na quicker one which rises high over the batsman's head as once again New Zealand are penalised for the height with a wide being called. Brendon can't believe it  but with Kohli out of the way  he can afford a rare smile  </p>]"
p325
ssS'26.1'
p326
(dp327
g3
S'Kohli'
p328
sg5
g26
sg7
S' Milne'
p329
sg9
S'\nand Kohli shows why he may very well be the best in the business in limited-overs cricket as he lofts Milne through point  with sweeper cover unable to rein it in before the boundary  </p>]'
p330
ssS'14.5'
p331
(dp332
g3
S'Dhawan'
p333
sg5
S'1 run'
p334
sg7
S' Anderson'
p335
sg9
S'\ncuts this short one away to third man for a single  </p>]'
p336
ssS'7.2'
p337
(dp338
g3
S'Kohli'
p339
sg5
g26
sg7
S' McClenaghan'
p340
sg9
S'\nKohli just dismisses this from his presence with an emphatic pull shot that has Mitchell smarting as he walks back to his mark. Smacks of Viv Richards with the nonchalant execution of the stroke  </p>]'
p341
ssS'14.6'
p342
(dp343
g3
S'Kohli'
p344
sg5
S'no run'
p345
sg7
S' Anderson'
p346
sg9
S'\ngets forward to defend this one to the man at mid-off  </p>]'
p347
ssS'14.1'
p348
(dp349
g3
S'Dhawan'
p350
sg5
S'no run'
p351
sg7
S' Anderson'
p352
sg9
S'\nheading down the pads as Dhawan looks to flick this past the keeper  </p>]'
p353
ssS'14.3'
p354
(dp355
g3
S'Dhawan'
p356
sg5
S'no run'
p357
sg7
S' Anderson'
p358
sg9
S'\nshort and wide as Dhawan is late on this as he looks to go after it  </p>]'
p359
ssS'12.2'
p360
(dp361
g3
S'Kohli'
p362
sg5
S'2 runs'
p363
sg7
S' Anderson'
p364
sg9
S'\nable to angle this fuller one through midwicket for a brace  </p>]'
p365
ssS'24.4'
p366
(dp367
g3
S'Kohli'
p368
sg5
S'2 runs'
p369
sg7
S' McClenaghan'
p370
sg9
S'\nKohli able to whip this leg-side bound delivery down to deep fine leg for a brace  </p>]'
p371
ssS'24.5'
p372
(dp373
g3
S'Kohli'
p374
sg5
S'no run'
p375
sg7
S' McClenaghan'
p376
sg9
S'\ndriven down to the man at mid-off as they fail to pick up a single  </p>]'
p377
ssS'24.6'
p378
(dp379
g3
S'Kohli'
p380
sg5
S'1 run'
p381
sg7
S' McClenaghan'
p382
sg9
S'\nthis time he is able to get it away down to deep midwicket and retain the strike  </p>]'
p383
ssS'14.2'
p384
(dp385
g3
S'Dhawan'
p386
sg5
S'2 runs'
p387
sg7
S' Anderson'
p388
sg9
S"\ncharges Anderson and then unleashes a drive  which isn't timed so sweetly  as this one heads towards deep extra-cover  </p>]"
p389
ssS'6.5'
p390
(dp391
g3
S'Dhawan'
p392
sg5
S'no run'
p393
sg7
S' Southee'
p394
sg9
S'\ndrives this elegantly on the front foot to short cover  </p>]'
p395
ssS'24.2'
p396
(dp397
g3
S'Raina'
p398
sg5
S'no run'
p399
sg7
S' McClenaghan'
p400
sg9
S'\nanother short one which Raina is happy to let through to the keeper  </p>]'
p401
ssS'24.3'
p402
(dp403
g3
S'Raina'
p404
sg5
S'1 run'
p405
sg7
S' McClenaghan'
p406
sg9
S'\npulls this one off the back foot in front of square for a single  </p>]'
p407
ssS'22.2'
p408
(dp409
g3
S'Kohli'
p410
sg5
S'1 run'
p411
sg7
S' McClenaghan'
p412
sg9
S'\npushed to the off side by Kohli as deep extra-cover comes into play  </p>]'
p413
ssS'22.3'
p414
(dp415
g3
S'Raina'
p416
sg5
S'1 run'
p417
sg7
S' McClenaghan'
p418
sg9
S'\ntries another short one but this one sits up for Raina as he works it down to deep fine leg  </p>]'
p419
ssS'6.4'
p420
(dp421
g3
S'Dhawan'
p422
sg5
S'no run'
p423
sg7
S' Southee'
p424
sg9
S'\nunleashes a drive through the off side to this fuller one from Southee  </p>]'
p425
ssS'22.6'
p426
(dp427
g3
S'Raina'
p428
sg5
S'1 run'
p429
sg7
S' McClenaghan'
p430
sg9
S'\nRaina leans in before pushing this one straight to sweeper cover  </p>]'
p431
ssS'22.4'
p432
(dp433
g3
S'Kohli'
p434
sg5
S'1 run'
p435
sg7
S' McClenaghan'
p436
sg9
S'\nplayed to the leg side by Kohli as he wants two  but Raina calls off the second run  </p>]'
p437
ssS'22.5'
p438
(dp439
g3
S'Raina'
p440
sg5
g26
sg7
S' McClenaghan'
p441
sg9
S"\nand predictably Raina is given another short one which he somehow is able to get over the keeper to the fine leg boundary. The ball runs off the bat's face  </p>]"
p442
ssS'7.6'
p443
(dp444
g3
S'Kohli'
p445
sg5
S'no run'
p446
sg7
S' McClenaghan'
p447
sg9
S'\nand sensibly sees off the over by shouldering arms to this back of a length delivery  </p>]'
p448
ssS'43.6'
p449
(dp450
g3
S'Ashwin'
p451
sg5
S'no run'
p452
sg7
S' NL McCullum'
p453
sg9
S'\ntries to get this away fine down the leg side  but ends up being hit outside the line on his pads  </p>]'
p454
ssS'6.2'
p455
(dp456
g3
S'Dhawan'
p457
sg5
S'no run'
p458
sg7
S' Southee'
p459
sg9
S'\njust pushes this one solidly to the cover fielder on the 30-yard ring  </p>]'
p460
ssS'7.4'
p461
(dp462
g3
S'Kohli'
p463
sg5
S'no run'
p464
sg7
S' McClenaghan'
p465
sg9
S'\ndefended off the back foot to the right of Mitchell  who dives after it in vain  hoping for a chance on offer  </p>]'
p466
ssS'34.6'
p467
(dp468
g3
S'Kohli'
p469
sg5
S'3 runs'
p470
sg7
S' Anderson'
p471
sg9
S'\nshows off his finesse with a delicate late cut which beats the keeper on the way to the third man rope  but is just reined in before the boundary  </p>]'
p472
ssS'34.5'
p473
(dp474
g3
S'Kohli'
p475
sg5
g26
sg7
S' Anderson'
p476
sg9
S'\nthis time Kohli is able to get under this one properly as he lifts this over long-on to get a boundary  </p>]'
p477
ssS'12.4'
p478
(dp479
g3
S'Kohli'
p480
sg5
S'1 run'
p481
sg7
S' Anderson'
p482
sg9
S'\nguides this one going across him behind square towards third man  </p>]'
p483
ssS'34.3'
p484
(dp485
g3
S'Kohli'
p486
sg5
S'1 run'
p487
sg7
S' Anderson'
p488
sg9
S'\nshort outside off which is punched to extra-cover for a single  </p>]'
p489
ssS'34.2'
p490
(dp491
g3
S'Kohli'
p492
sg5
S'2 runs'
p493
sg7
S' Anderson'
p494
sg9
S"\nand Kohli shows he is not fazed by that one as he steps down to loft Anderson over extra-cover  but doesn't quite get it out of the middle of the bat  with this one falling safe just before the boundary  </p>]"
p495
ssS'34.1'
p496
(dp497
g3
S'Kohli'
p498
sg5
S'2 runs'
p499
sg7
S' Anderson'
p500
sg9
S'\nand some activity straightaway as Kohli works this one away to deep extra-cover  with the throw from the deep hitting the stumps. Kohli wants the second as Dhoni comes back for it. They ask for the third umpire  and it really looks tough and go  but is ultimately given not out  </p>]'
p501
ssS'24.1'
p502
(dp503
g3
S'Kohli'
p504
sg5
S'1 run'
p505
sg7
S' McClenaghan'
p506
sg9
S'\nKohli on the back foot as he eases this towards square leg  </p>]'
p507
ssS'3.6'
p508
(dp509
g3
S'Sharma'
p510
sg5
S'no run'
p511
sg7
S' McClenaghan'
p512
sg9
S'\nhow did that one miss the top of off stump? Rohit is drawn into playing a pull in front of square to this back of a length delivery  but completely misses the ball as he is far too early in his shot  with the ball carrying through to the keeper  but not before hovering just above the off stump on its way  </p>]'
p513
ssS'3.4'
p514
(dp515
g3
S'Sharma'
p516
sg5
S'no run'
p517
sg7
S' McClenaghan'
p518
sg9
S'\npitched up by Mitchell as Rohit drills this back to the bowler  who is able to stop it with his left foot as he falls face down  before mid-off comes into play to stop the ball from carrying any further  preventing a single for India  </p>]'
p519
ssS'3.5'
p520
(dp521
g3
S'Sharma'
p522
sg5
S'no run'
p523
sg7
S' McClenaghan'
p524
sg9
S'\nraps Rohit on the pads and goes for a huge appeal  but the umpire is not interested as this one  while pitching in line  may have a question mark over the height. Hard to say without Hawkeye though  </p>]'
p525
ssS'3.2'
p526
(dp527
g3
S'Dhawan'
p528
sg5
S'1 run'
p529
sg7
S' McClenaghan'
p530
sg9
S'\nshortish length which has Dhawan cutting this away close to his body behind square for a single  </p>]'
p531
ssS'3.3'
p532
(dp533
g3
S'Sharma'
p534
sg5
S'no run'
p535
sg7
S' McClenaghan'
p536
sg9
S'\njust deflects this shortish length ball going away from him to the man at backward point  </p>]'
p537
ssS'3.1'
p538
(dp539
g3
S'Dhawan'
p540
sg5
S'no run'
p541
sg7
S' McClenaghan'
p542
sg9
S'\ngets this one wide outside off  and tailing away  as Dhawan is not enticed to go after it  </p>]'
p543
ssS'2.3'
p544
(dp545
g3
S'Sharma'
p546
sg5
S'no run'
p547
sg7
S' Southee'
p548
sg9
S'\nlength ball and swinging away as Rohit shoulders arms  </p>]'
p549
ssS'2.2'
p550
(dp551
g3
S'Sharma'
p552
sg5
S'no run'
p553
sg7
S' Southee'
p554
sg9
S'\nRohit content to defend this back of a length delivery to the off side  </p>]'
p555
ssS'2.1'
p556
(dp557
g3
S'Sharma'
p558
sg5
S'no run'
p559
sg7
S' Southee'
p560
sg9
S'\nlength outside off and shaping away as Rohit is solid in defence  </p>]'
p561
ssS'36.6'
p562
(dp563
g3
S'Kohli'
p564
sg5
S'1 run'
p565
sg7
S' Anderson'
p566
sg9
S'\nlow full toss which is flicked away straight to deep square leg  </p>]'
p567
ssS'36.1'
p568
(dp569
g3
S'Kohli'
p570
sg5
S'no run'
p571
sg7
S' Anderson'
p572
sg9
S'\ndances down the track but fails to get this any further than the 30-yard circle on the off side  </p>]'
p573
ssS'2.6'
p574
(dp575
g3
S'Sharma'
p576
sg5
S'no run'
p577
sg7
S' Southee'
p578
sg9
S'\nprods forward to defend the final ball as Southee finishes off a maiden over  </p>]'
p579
ssS'2.5'
p580
(dp581
g3
S'Sharma'
p582
sg5
S'no run'
p583
sg7
S' Southee'
p584
sg9
S'\ngoing down the pads as Rohit tries to get this past Ronchi  </p>]'
p585
ssS'2.4'
p586
(dp587
g3
S'Sharma'
p588
sg5
S'no run'
p589
sg7
S' Southee'
p590
sg9
S'\npushes this back of a length ball to the fielder at short cover  </p>]'
p591
ssS'20.1'
p592
(dp593
g3
S'Rahane'
p594
sg5
S'2 runs'
p595
sg7
S' Anderson'
p596
sg9
S'\ncut this away in front of square  with the ball almost getting to the extra-cover boundary  </p>]'
p597
ssS'20.2'
p598
(dp599
g3
S'Rahane'
p600
sg5
S'2 runs'
p601
sg7
S' Anderson'
p602
sg9
S'\nplays a classy punch down the ground which almost gets to the long-on boundary  </p>]'
p603
ssS'20.3'
p604
(dp605
g3
S'Rahane'
p606
sg5
S'no run'
p607
sg7
S' Anderson'
p608
sg9
S'\nKohli presents the straightest of bats to the bowler  </p>]'
p609
ssS'20.4'
p610
(dp611
g3
S'Rahane'
p612
sg5
S'no run'
p613
sg7
S' Anderson'
p614
sg9
S'\nonce again on the front foot as Rahane is keen on getting settled in  </p>]'
p615
ssS'20.5'
p616
(dp617
g3
S'Rahane'
p618
sg5
S'no run'
p619
sg7
S' Anderson'
p620
sg9
S'\ndriven straight to mid-off by Rahane  </p>]'
p621
ssS'20.6'
p622
(dp623
g3
S'Rahane'
p624
sg5
g129
sg7
S' Anderson'
p625
sg9
S'\nMcCullum pulls out a corker of a catch to remove Rahane as he lofts this one in the air towards mid-off  with McCullum running to his right before launching at the correct moment to get his right hand under the ball before it grazes the grass. What a stunner from NZ  who continue to exhibit solid skills in the fielding department  </p>]'
p626
ssS'13.50'
p627
(dp628
g3
S'Kohli'
p629
sg5
g183
sg7
S' Milne'
p630
sg9
S'\n142 kph  delivers a short one which has Kohli ducking for cover. Called wide by the umpire  </p>]'
p631
ssS'46.3'
p632
(dp633
g3
S'Ashwin'
p634
sg5
g171
sg7
S' McClenaghan'
p635
sg9
S'\nfuller one just outside off which is slammed over midwicket for a huge six. Just seemed to hang in the air for the longest time  affording Ashwin enough of a chance to enjoy the moment  </p>]'
p636
ssS'42.1'
p637
(dp638
g3
S'Kohli'
p639
sg5
S'no run'
p640
sg7
S' McClenaghan'
p641
sg9
S'\nhits this one straight to mid-on to save any runs for NZ  </p>]'
p642
ssS'22.1'
p643
(dp644
g3
S'Raina'
p645
sg5
S'1 run'
p646
sg7
S' McClenaghan'
p647
sg9
S'\ntests him with a shorter one which Raina passes with flying colours  for now  as he pulls this towards square leg  </p>]'
p648
ssS'39.1'
p649
(dp650
g3
S'Kohli'
p651
sg5
S'1 run'
p652
sg7
S' NL McCullum'
p653
sg9
S'\neases this one square off the wicket to deep square leg  </p>]'
p654
ssS'21.5'
p655
(dp656
g3
S'Raina'
p657
sg5
S'no run'
p658
sg7
S' NL McCullum'
p659
sg9
S'\nRaina exhibits how solid he can be with another display of his front foot defence  </p>]'
p660
ssS'40.2'
p661
(dp662
g3
S'Kohli'
p663
sg5
S'1 run'
p664
sg7
S' Milne'
p665
sg9
S'\npushes this one gently past Milne  who seems to be struggling as he grabs his left side after delivering that last ball  with the batsman afforded that little bit of extra time to sneak in a run  </p>]'
p666
ssS'40.3'
p667
(dp668
g3
S'Dhoni'
p669
sg5
S'no run'
p670
sg7
S' Milne'
p671
sg9
S'\n142 kph  Dhoni punches this off the back foot towards point  with Williamson diving to his right to stop this in its track. Good fielding effort there  </p>]'
p672
ssS'40.1'
p673
(dp674
g3
S'Dhoni'
p675
sg5
S'1 run'
p676
sg7
S' Milne'
p677
sg9
S'\n142 kph  short and heading down the leg side as Dhoni turns this away to the leg side for a single  </p>]'
p678
ssS'40.6'
p679
(dp680
g3
S'Kohli'
p681
sg5
S'1 run'
p682
sg7
S' Williamson'
p683
sg9
S'\nsteered straight to long-on to retain the strike  </p>]'
p684
ssS'40.4'
p685
(dp686
g3
S'Dhoni'
p687
sg5
S'no run  </p>]'
p688
sg7
S' Williamson'
p689
sg9
S''
p690
ssS'40.5'
p691
(dp692
g3
S'Dhoni'
p693
sg5
S'1 run'
p694
sg7
S' Williamson'
p695
sg9
S'\nthis time drives this one down to long-off for an easy single  </p>]'
p696
ssS'27.3'
p697
(dp698
g3
S'Raina'
p699
sg5
S'no run'
p700
sg7
S' NL McCullum'
p701
sg9
S'\nRaina tries to get this past Nathan  but a dive to his left puts paid to that  </p>]'
p702
ssS'27.2'
p703
(dp704
g3
S'Kohli'
p705
sg5
S'1 run'
p706
sg7
S' NL McCullum'
p707
sg9
S'\njust whips this with his steely wrists to midwicket  </p>]'
p708
ssS'27.1'
p709
(dp710
g3
S'Raina'
p711
sg5
S'1 run'
p712
sg7
S' NL McCullum'
p713
sg9
S'\nenticed to come down the track as he lofts Nathan  albeit not assuredly  towards deep extra-cover  </p>]'
p714
ssS'21.6'
p715
(dp716
g3
S'Raina'
p717
sg5
S'1 run'
p718
sg7
S' NL McCullum'
p719
sg9
S'\nthis time runs it down to the man at long-off to retain the strike  </p>]'
p720
ssS'43.3'
p721
(dp722
g3
S'Kohli'
p723
sg5
S'2 runs'
p724
sg7
S' NL McCullum'
p725
sg9
S'\nonce again tries to penetrate midwicket  but the fielder coming from long-on is able to put in a successful dive to prevent the boundary  </p>]'
p726
ssS'27.6'
p727
(dp728
g3
S'Raina'
p729
sg5
g26
sg7
S' NL McCullum'
p730
sg9
S'\nstraying down the leg side as Raina just helps this along with a powerful sweep that finds its way to the fine leg boundary  </p>]'
p731
ssS'27.5'
p732
(dp733
g3
S'Kohli'
p734
sg5
S'1 run'
p735
sg7
S' NL McCullum'
p736
sg9
S'\nwhips this one away down to the man at long-on for one  </p>]'
p737
ssS'27.4'
p738
(dp739
g3
S'Raina'
p740
sg5
S'1 run'
p741
sg7
S' NL McCullum'
p742
sg9
S'\nworked away by Raina to the off side for a tight single  </p>]'
p743
ssS'21.1'
p744
(dp745
g3
S'Kohli'
p746
sg5
S'no run'
p747
sg7
S' NL McCullum'
p748
sg9
S'\nNathan round the wicket to Kohli as this is defended back to the bowler  </p>]'
p749
ssS'42.2'
p750
(dp751
g3
S'Kohli'
p752
sg5
S'1 run'
p753
sg7
S' McClenaghan'
p754
sg9
S"\nunfurls a beautiful cover drive  but doesn't quite get the result he wanted as sweeper cover comes into play  </p>]"
p755
ssS'12.5'
p756
(dp757
g3
S'Dhawan'
p758
sg5
S'1 run'
p759
sg7
S' Anderson'
p760
sg9
S'\nDhawan in position quickly to this short one from Anderson  but then at the last moment checks his shot to fend this away to the leg side for a quick single  </p>]'
p761
ssS'42.4'
p762
(dp763
g3
S'Jadeja'
p764
sg5
S'no run'
p765
sg7
S' McClenaghan'
p766
sg9
S'\nand defended straightaway to the fielder at short cover point  </p>]'
p767
ssS'30.4'
p768
(dp769
g3
S'Dhoni'
p770
sg5
S'2 runs'
p771
sg7
S' Milne'
p772
sg9
S'\n146 kph  Milne unlucky as he succeeds in getting Dhoni to edge this one  but away from any fielders as third man is able to recover the ball before the boundary  </p>]'
p773
ssS'42.6'
p774
(dp775
g3
S'Jadeja'
p776
sg5
g129
sg7
S' McClenaghan'
p777
sg9
S"\nshort of a length and McClenaghan may have turned the tide of this match with this over as Jadeja feeds a simple outside edge to Ronchi  who probably can't believe how easy that turned out to be. Jadeja storms off after a three-ball duck  </p>]"
p778
ssS'25.1'
p779
(dp780
g3
S'Kohli'
p781
sg5
g171
sg7
S' NL McCullum'
p782
sg9
S'\nKohli has had enough as he advances down the track to clear Nathan handsomely over long-off. Excellent use of the feet there from the Delhi batsman  </p>]'
p783
ssS'25.3'
p784
(dp785
g3
S'Raina'
p786
sg5
S'no run'
p787
sg7
S' NL McCullum'
p788
sg9
S'\nRaina prods tentatively forward to defend this one towards the off side  </p>]'
p789
ssS'25.2'
p790
(dp791
g3
S'Kohli'
p792
sg5
S'1 run'
p793
sg7
S' NL McCullum'
p794
sg9
S'\nthis time gets it away to square leg for a single. Moves to 49. His consistency is quite astounding  </p>]'
p795
ssS'25.5'
p796
(dp797
g3
S'Kohli'
p798
sg5
S'1 run'
p799
sg7
S' NL McCullum'
p800
sg9
S'\nand he picks up his <b>fifty</b> with a gentle clip off the pads. 50 off 58 in his first innings in NZ. What a serious talent he is  and has been for India  </p>]'
p801
ssS'25.4'
p802
(dp803
g3
S'Raina'
p804
sg5
S'1 run'
p805
sg7
S' NL McCullum'
p806
sg9
S'\nand Raina shows a more positive side by shimmying down to drive this to long-off  </p>]'
p807
ssS'25.6'
p808
(dp809
g3
S'Raina'
p810
sg5
S'no run'
p811
sg7
S' NL McCullum'
p812
sg9
S'\nRaina stoic as he defends this one on the front foot  </p>]'
p813
ssS'21.2'
p814
(dp815
g3
S'Kohli'
p816
sg5
S'no run'
p817
sg7
S' NL McCullum'
p818
sg9
S'\ngreat stop by Ryder at short cover as Kohli looks to beat him with a drive  </p>]'
p819
ssS'28.6'
p820
(dp821
g3
S'Dhoni'
p822
sg5
S'1 run'
p823
sg7
S' Milne'
p824
sg9
S'\n141 kph  on the back foot as Dhoni is able to squirt this away to the off side for a single  </p>]'
p825
ssS'23.6'
p826
(dp827
g3
S'Raina'
p828
sg5
S'no run'
p829
sg7
S' NL McCullum'
p830
sg9
S'\ninside-edge which goes towards the off side  </p>]'
p831
ssS'23.5'
p832
(dp833
g3
S'Kohli'
p834
sg5
S'1 run'
p835
sg7
S' NL McCullum'
p836
sg9
S'\nspinning in on middle at 91kph  nudged away to square leg  </p>]'
p837
ssS'23.4'
p838
(dp839
g3
S'Kohli'
p840
sg5
S'no run'
p841
sg7
S' NL McCullum'
p842
sg9
S'\nsteered straight to silly mid-on by Kohli  </p>]'
p843
ssS'23.3'
p844
(dp845
g3
S'Raina'
p846
sg5
S'1 run'
p847
sg7
S' NL McCullum'
p848
sg9
S'\nthis time plays this one away to the off side for a tight single  </p>]'
p849
ssS'23.2'
p850
(dp851
g3
S'Raina'
p852
sg5
S'no run'
p853
sg7
S' NL McCullum'
p854
sg9
S'\nplayed straight back to the bowler  who fields it with a dive to his rigth  </p>]'
p855
ssS'23.1'
p856
(dp857
g3
S'Raina'
p858
sg5
S'no run'
p859
sg7
S' NL McCullum'
p860
sg9
S'\nflighted delivery on middle  defended off the inside half of the bat to the leg-side  </p>]'
p861
ssS'32.1'
p862
(dp863
g3
S'Kohli'
p864
sg5
S'no run'
p865
sg7
S' Anderson'
p866
sg9
S"\nplayed towards the off side  but can't pinch a single  </p>]"
p867
ssS'32.3'
p868
(dp869
g3
S'Dhoni'
p870
sg5
S'1 run'
p871
sg7
S' Anderson'
p872
sg9
S'\nsteps inside this short and wide one before directing it behind square on the leg side  </p>]'
p873
ssS'32.2'
p874
(dp875
g3
S'Kohli'
p876
sg5
S'1 run'
p877
sg7
S' Anderson'
p878
sg9
S'\nguides this one down to third man for one  </p>]'
p879
ssS'32.5'
p880
(dp881
g3
S'Kohli'
p882
sg5
S'no run'
p883
sg7
S' Anderson'
p884
sg9
S'\nleans into a drive but finds short cover point straightaway  </p>]'
p885
ssS'32.4'
p886
(dp887
g3
S'Kohli'
p888
sg5
S'no run'
p889
sg7
S' Anderson'
p890
sg9
S'\nback of a length outside off which is let through to the keeper  </p>]'
p891
ssS'32.6'
p892
(dp893
g3
S'Kohli'
p894
sg5
S'no run'
p895
sg7
S' Anderson'
p896
sg9
S'\ntries to get this away on the off side  but instead ends up playing this one back to the bowler  </p>]'
p897
ssS'33.4'
p898
(dp899
g3
S'Dhoni'
p900
sg5
S'no run'
p901
sg7
S' NL McCullum'
p902
sg9
S'\ncaressed off the back foot  but once again finds the fielder on the off side  </p>]'
p903
ssS'19.4'
p904
(dp905
g3
S'Rahane'
p906
sg5
S'1 run'
p907
sg7
S' NL McCullum'
p908
sg9
S'\nRahane plays this with soft hands as he and Kohli are quite fleet-footed between the sticks  </p>]'
p909
ssS'33.6'
p910
(dp911
g3
S'Kohli'
p912
sg5
S'1 run  </p>]'
p913
sg7
S' NL McCullum'
p914
sg9
g690
ssS'18.60'
p915
(dp916
g3
S'Rahane'
p917
sg5
g183
sg7
S' Anderson'
p918
sg9
S"\nwide down the leg side from Anderson. India won't mind these extras at all  </p>]"
p919
ssS'33.1'
p920
(dp921
g3
S'Dhoni'
p922
sg5
S'no run'
p923
sg7
S' NL McCullum'
p924
sg9
S'\njust steers this one to the close in fielder on the leg side  </p>]'
p925
ssS'33.2'
p926
(dp927
g3
S'Dhoni'
p928
sg5
S'no run'
p929
sg7
S' NL McCullum'
p930
sg9
S'\ndefended away to the leg side by Dhoni  </p>]'
p931
ssS'19.5'
p932
(dp933
g3
S'Kohli'
p934
sg5
S'1 run'
p935
sg7
S' NL McCullum'
p936
sg9
S'\nthis time nudges this one down to the fielder at long-on  </p>]'
p937
ssS'19.6'
p938
(dp939
g3
S'Rahane'
p940
sg5
S'1 run'
p941
sg7
S' NL McCullum'
p942
sg9
S'\nplayed off the hips by Kohli  but is unable to get the second  </p>]'
p943
ssS'29.4'
p944
(dp945
g3
S'Dhoni'
p946
sg5
S'no run'
p947
sg7
S' Southee'
p948
sg9
S'\nlooks to get into position to pull before dropping his hands at the last moment to let it through to the keeper  </p>]'
p949
ssS'39.6'
p950
(dp951
g3
S'Dhoni'
p952
sg5
S'1 run'
p953
sg7
S' NL McCullum'
p954
sg9
S'\nonce again in the gap at square leg as Dhoni retains the strike for the next over  </p>]'
p955
ssS'39.4'
p956
(dp957
g3
S'Kohli'
p958
sg5
S'1 run'
p959
sg7
S' NL McCullum'
p960
sg9
S'\nclipped off the pads down to deep square leg for one  </p>]'
p961
ssS'39.5'
p962
(dp963
g3
S'Dhoni'
p964
sg5
S'no run'
p965
sg7
S' NL McCullum'
p966
sg9
S'\nsteered straight to the man at silly mid-on  </p>]'
p967
ssS'39.2'
p968
(dp969
g3
S'Dhoni'
p970
sg5
g171
sg7
S' NL McCullum'
p971
sg9
S'\ntakes a couple of steps down the track before hammering McCullum through long-on with a flat six. I hope no one actually attempted to catch that one  or they would find themselves handless  as it was hit at quite a speed  </p>]'
p972
ssS'39.3'
p973
(dp974
g3
S'Dhoni'
p975
sg5
S'1 run'
p976
sg7
S' NL McCullum'
p977
sg9
S'\nsticks his bat out to play this on the full to the leg side  </p>]'
p978
ssS'19.1'
p979
(dp980
g3
S'Kohli'
p981
sg5
S'1 run'
p982
sg7
S' NL McCullum'
p983
sg9
S'\nable to carve this one through the point region for a quick single  </p>]'
p984
ssS'8.1'
p985
(dp986
g3
S'Dhawan'
p987
sg5
S'no run'
p988
sg7
S' Southee'
p989
sg9
S'\nworks this length delivery to the fielder at silly mid-on  </p>]'
p990
ssS'21.4'
p991
(dp992
g3
S'Raina'
p993
sg5
S'no run'
p994
sg7
S' NL McCullum'
p995
sg9
S'\nprods forward to take out the malice of this McCullum offering  </p>]'
p996
ssS'8.3'
p997
(dp998
g3
S'Dhawan'
p999
sg5
g26
sg7
S' Southee'
p1000
sg9
S'\nin the slot and Dhawan drives this elegantly through the gap in the covers to find the extra-cover boundary  </p>]'
p1001
ssS'8.2'
p1002
(dp1003
g3
S'Dhawan'
p1004
sg5
S'no run'
p1005
sg7
S' Southee'
p1006
sg9
S'\nalmost succeeds in chopping one onto his stumps  but is lucky to get a fortunate bounce  </p>]'
p1007
ssS'8.5'
p1008
(dp1009
g3
S'Dhawan'
p1010
sg5
S'1 run'
p1011
sg7
S' Southee'
p1012
sg9
S'\nanother short one which has Dhawan playing this a bit later to get it down to deep fine leg  </p>]'
p1013
ssS'8.4'
p1014
(dp1015
g3
S'Dhawan'
p1016
sg5
S'2 runs'
p1017
sg7
S' Southee'
p1018
sg9
S'\n<b>dropped</b> shortish length which has Dhawan rocking back to pull  but he almost pulls this straight to Corey Anderson at square leg  who gets in a good leap before palming the ball over. Unlucky for NZ  </p>]'
p1019
ssS'21.3'
p1020
(dp1021
g3
S'Kohli'
p1022
sg5
S'1 run'
p1023
sg7
S' NL McCullum'
p1024
sg9
S'\nKohli once again tries to get it past the covers  but Milne  running in from mid-off  is able to get a hand on it  </p>]'
p1025
ssS'8.6'
p1026
(dp1027
g3
S'Kohli'
p1028
sg5
S'no run'
p1029
sg7
S' Southee'
p1030
sg9
S'\nfuller one just outside off which is steered towards point  </p>]'
p1031
ssS'19.3'
p1032
(dp1033
g3
S'Rahane'
p1034
sg5
S'no run'
p1035
sg7
S' NL McCullum'
p1036
sg9
S'\nsteered straight back to the bowler as Nathan throws in a dive  </p>]'
p1037
ssS'44.4'
p1038
(dp1039
g3
S'Kumar'
p1040
sg5
g26
sg7
S' McClenaghan'
p1041
sg9
S'\nbrilliant shot from Bhuvi as he leans back before ramping McClenaghan over the slip region for a boundary  </p>]'
p1042
ssS'42.5'
p1043
(dp1044
g3
S'Jadeja'
p1045
sg5
S'no run'
p1046
sg7
S' McClenaghan'
p1047
sg9
S"\ngoes past the outside edge of Jadeja's bat as he looks to have a go at it  but half-heartedly in the end  </p>]"
p1048
ssS'30.3'
p1049
(dp1050
g3
S'Dhoni'
p1051
sg5
S'no run'
p1052
sg7
S' Milne'
p1053
sg9
S'\n138 kph  Dhoni ends up dragging this shortish length ball outside off onto his body  </p>]'
p1054
ssS'44.5'
p1055
(dp1056
g3
S'Kumar'
p1057
sg5
S'no run'
p1058
sg7
S' McClenaghan'
p1059
sg9
S'\npresses forward to defend this latest offering from McClenaghan  </p>]'
p1060
ssS'9.4'
p1061
(dp1062
g3
S'Dhawan'
p1063
sg5
S'no run'
p1064
sg7
S' Milne'
p1065
sg9
S'\n150 kph  tries to squeeze away this length ball just outside off  but finds Jesse Ryder at the slips  </p>]'
p1066
ssS'9.5'
p1067
(dp1068
g3
S'Dhawan'
p1069
sg5
S'no run'
p1070
sg7
S' Milne'
p1071
sg9
S'\n150 kph  once again Dhawan is late on it as he mistimes this one towards mid-off  </p>]'
p1072
ssS'9.6'
p1073
(dp1074
g3
S'Dhawan'
p1075
sg5
S'no run'
p1076
sg7
S' Milne'
p1077
sg9
S'\n150 kph  finishes off the over with a shortish length ball going across him which Dhawan is wise to leave alone  </p>]'
p1078
ssS'29.2'
p1079
(dp1080
g3
S'Dhoni'
p1081
sg5
S'no run'
p1082
sg7
S' Southee'
p1083
sg9
S'\nshort and wide as Dhoni has a go  but ends up getting a bottom-edge to the keeper  </p>]'
p1084
ssS'33.20'
p1085
(dp1086
g3
S'Dhoni'
p1087
sg5
g183
sg7
S' NL McCullum'
p1088
sg9
S'\nlooks to play that trademark fine sweep  but misses the ball  </p>]'
p1089
ssS'9.1'
p1090
(dp1091
g3
S'Dhawan'
p1092
sg5
g26
sg7
S' Milne'
p1093
sg9
S'\n147 kph  and Dhawan diffuses the pace out of this one by simply punching the ball into the ground  with the bounce carrying over the point fielder  all the way to the sweeper boundary  </p>]'
p1094
ssS'9.2'
p1095
(dp1096
g3
S'Dhawan'
p1097
sg5
S'no run'
p1098
sg7
S' Milne'
p1099
sg9
S'\n150 kph  length ball which is defended to the off side by Dhawan. Cheer rings around the ground when the speed is displayed on the big board  </p>]'
p1100
ssS'9.3'
p1101
(dp1102
g3
S'Dhawan'
p1103
sg5
S'no run'
p1104
sg7
S' Milne'
p1105
sg9
S'\n147 kph  back of a length and Dhawan defends this one into the ground  </p>]'
p1106
ssS'34.4'
p1107
(dp1108
g3
S'Dhoni'
p1109
sg5
S'1 run'
p1110
sg7
S' Anderson'
p1111
sg9
S'\nslaps this one away outside off for a quick single  </p>]'
p1112
ssS'41.6'
p1113
(dp1114
g3
S'Dhoni'
p1115
sg5
S'no run'
p1116
sg7
S' Southee'
p1117
sg9
S'\npushed to short cover point to mark the end of the over  and a long one at that  </p>]'
p1118
ssS'41.5'
p1119
(dp1120
g3
S'Kohli'
p1121
sg5
S'1 run'
p1122
sg7
S' Southee'
p1123
sg9
S'\nguides this one expertly to the fielder at third man  </p>]'
p1124
ssS'41.4'
p1125
(dp1126
g3
S'Dhoni'
p1127
sg5
S'1 run'
p1128
sg7
S' Southee'
p1129
sg9
S'\nbowls a shorter one which has Dhoni pulling this behind square  </p>]'
p1130
ssS'41.3'
p1131
(dp1132
g3
S'Kohli'
p1133
sg5
S'1 run'
p1134
sg7
S' Southee'
p1135
sg9
S'\nKohli leans in and plays a scintillating drive through the covers  </p>]'
p1136
ssS'41.2'
p1137
(dp1138
g3
S'Dhoni'
p1139
sg5
S'1 run'
p1140
sg7
S' Southee'
p1141
sg9
S'\nworks this off the back foot towards extra-cover  </p>]'
p1142
ssS'30.1'
p1143
(dp1144
g3
S'Dhoni'
p1145
sg5
g26
sg7
S' Milne'
p1146
sg9
S'\n127 kph  you know the press had asked Dhoni what he made of Milne. Here is his answer. Just slaps him behind point as this one races away  even beating an incoming third man  to the boundary  </p>]'
p1147
ssS'30.6'
p1148
(dp1149
g3
S'Dhoni'
p1150
sg5
S'no run'
p1151
sg7
S' Milne'
p1152
sg9
S'\n138 kph  ducks under this steepler from Milne to finish off the over  </p>]'
p1153
ssS'44.2'
p1154
(dp1155
g3
S'Kohli'
p1156
sg5
g129
sg7
S' McClenaghan'
p1157
sg9
S"\nfull toss outside off and out of all the deliveries to get him out  this turns out to be the one as he just lasers this to Ryder  who won't make the same mistake twice  as he takes this rather nonchalantly  while the rest of Napier erupts. The Napier crowd is good enough to stand up and applaud this sterling effort from the Delhi lad  </p>]"
p1158
ssS'43.5'
p1159
(dp1160
g3
S'Ashwin'
p1161
sg5
S'no run'
p1162
sg7
S' NL McCullum'
p1163
sg9
S'\njust pushes this to the fielder at mid-off  </p>]'
p1164
ssS'28.1'
p1165
(dp1166
g3
S'Kohli'
p1167
sg5
S'1 run'
p1168
sg7
S' Milne'
p1169
sg9
S'\n132 kph  pushes this one towards deep extra-cover for a couple  </p>]'
p1170
ssS'28.2'
p1171
(dp1172
g3
S'Raina'
p1173
sg5
g129
sg7
S' Milne'
p1174
sg9
S"\n140 kph  you just knew in the back of your mind that it was only a matter of time as Milne gets Raina to play the pull  but hits it a bit too fine as deep fine leg takes a good catch in the deep to remove the left-hander. So ends Raina's little stay the crease  </p>]"
p1175
ssS'28.3'
p1176
(dp1177
g3
S'Dhoni'
p1178
sg5
S'1 run'
p1179
sg7
S' Milne'
p1180
sg9
S'\n144 kph  pulls this riser outside off behind square to get off the mark straightaway  </p>]'
p1181
ssS'28.4'
p1182
(dp1183
g3
S'Kohli'
p1184
sg5
S'no run'
p1185
sg7
S' Milne'
p1186
sg9
S'\n147 kph  drives this one beautifully  but straight to the man at short cover  </p>]'
p1187
ssS'28.5'
p1188
(dp1189
g3
S'Kohli'
p1190
sg5
S'1 run'
p1191
sg7
S' Milne'
p1192
sg9
S'\n140 kph  another short ball from Milne almost gets an Indian batsman in trouble as Kohli goes for the pull  but is late on it as this one spoons towards square leg  but there was no fielder in the vicinity. Lucky break for Kohli there  </p>]'
p1193
ssS'7.3'
p1194
(dp1195
g3
S'Kohli'
p1196
sg5
S'no run'
p1197
sg7
S' McClenaghan'
p1198
sg9
S'\nshort and slanting away from Kohli as he drops his wrists. I think he was expecting the wide to be called  but when he sees the umpire is unmoved  has a nice glare at the bowler.  </p>]'
p1199
ssS'15.5'
p1200
(dp1201
g3
S'Dhawan'
p1202
sg5
S'no run'
p1203
sg7
S' Milne'
p1204
sg9
S'\n150 kph  beaten for pace as Dhawan fails to get this away from him  with the ball just landing at his feet  </p>]'
p1205
ssS'22.60'
p1206
(dp1207
g3
S'Raina'
p1208
sg5
g183
sg7
S' McClenaghan'
p1209
sg9
S'\nanother short one from Mitchell  but the umpire is feeling sorry for Raina as he calls a wide  </p>]'
p1210
ssS'19.2'
p1211
(dp1212
g3
S'Rahane'
p1213
sg5
S'no run'
p1214
sg7
S' NL McCullum'
p1215
sg9
S'\nsteers this one straight into the waiting hands of short cover point  </p>]'
p1216
ssS'38.2'
p1217
(dp1218
g3
S'Dhoni'
p1219
sg5
g171
sg7
S' Anderson'
p1220
sg9
S'\nstand and deliver as MS Dhoni just clubs this over the head of Anderson for a straight six  </p>]'
p1221
ssS'40.30'
p1222
(dp1223
g3
S'Dhoni'
p1224
sg5
g183
sg7
S' Milne'
p1225
sg9
S'\ntoo short as Dhoni knows the umpire will call this a wide  which he does  </p>]'
p1226
ssS'31.6'
p1227
(dp1228
g3
S'Dhoni'
p1229
sg5
S'no run'
p1230
sg7
S' Southee'
p1231
sg9
S'\ncontent to let this wider one outside off through to the keeper  </p>]'
p1232
ssS'38.4'
p1233
(dp1234
g3
S'Kohli'
p1235
sg5
S'1 run'
p1236
sg7
S' Anderson'
p1237
sg9
S'\neschewed through the off side by Kohli as New Zealand suddenly seem a little more cautious out there  </p>]'
p1238
ssS'31.4'
p1239
(dp1240
g3
S'Dhoni'
p1241
sg5
S'no run'
p1242
sg7
S' Southee'
p1243
sg9
S'\nfails to get this length ball outside off away  </p>]'
p1244
ssS'31.5'
p1245
(dp1246
g3
S'Dhoni'
p1247
sg5
S'no run'
p1248
sg7
S' Southee'
p1249
sg9
S'\na little play and miss at the end there from Dhoni  </p>]'
p1250
ssS'31.2'
p1251
(dp1252
g3
S'Dhoni'
p1253
sg5
S'no run'
p1254
sg7
S' Southee'
p1255
sg9
S'\nMS Dhoni slaps Southee straight into the ground  before Ryder gets behind it beautifully  </p>]'
p1256
ssS'31.3'
p1257
(dp1258
g3
S'Dhoni'
p1259
sg5
S'no run'
p1260
sg7
S' Southee'
p1261
sg9
S'\nDhoni not at all impressed as he sees the shorter one from Southee  but realises soon after that this once is not even in the same zip code  </p>]'
p1262
ssS'3.30'
p1263
(dp1264
g3
S'Sharma'
p1265
sg5
g183
sg7
S' McClenaghan'
p1266
sg9
S'\nonce again gets the line wrong as this heads down the leg side  </p>]'
p1267
ssS'31.1'
p1268
(dp1269
g3
S'Kohli'
p1270
sg5
S'1 run'
p1271
sg7
S' Southee'
p1272
sg9
S'\nback of a length and clipped to the leg side for a single  </p>]'
p1273
ssS'18.1'
p1274
(dp1275
g3
S'Dhawan'
p1276
sg5
g129
sg7
S' Anderson'
p1277
sg9
S'\nand Anderson has struck soon after the drinks break as he gets Dhawan to spoon a pull shot straight up over the leg side  with Ross Taylor getting under it to take the catch. Big blow for India as Dhawan as looking to build from this platform he had laid  </p>]'
p1278
ssS'18.3'
p1279
(dp1280
g3
S'Rahane'
p1281
sg5
S'1 run'
p1282
sg7
S' Anderson'
p1283
sg9
S'\non the back foot as he is able to work this away to the leg side for a single  </p>]'
p1284
ssS'18.2'
p1285
(dp1286
g3
S'Rahane'
p1287
sg5
S'no run'
p1288
sg7
S' Anderson'
p1289
sg9
S'\ndefends this first one to the left of the bowler. Very correct in his back foot defence  Rahane  </p>]'
p1290
ssS'18.5'
p1291
(dp1292
g3
S'Kohli'
p1293
sg5
S'1 run'
p1294
sg7
S' Anderson'
p1295
sg9
S'\nstrides forward to meet this one as this is played towards deep extra-cover  </p>]'
p1296
ssS'18.4'
p1297
(dp1298
g3
S'Kohli'
p1299
sg5
S'no run'
p1300
sg7
S' Anderson'
p1301
sg9
S'\nKohli content to shoulder arms to this latest offering from Anderson  </p>]'
p1302
ssS'18.6'
p1303
(dp1304
g3
S'Rahane'
p1305
sg5
S'no run'
p1306
sg7
S' Anderson'
p1307
sg9
S'\nRahane meets this one with a straight bat to end the over  </p>]'
p1308
ssS'1.4'
p1309
(dp1310
g3
S'Dhawan'
p1311
sg5
S'1 leg bye'
p1312
sg7
S' McClenaghan'
p1313
sg9
S'\nangling down the pads as Dhawan is able to get this away for a quick single  </p>]'
p1314
ssS'1.5'
p1315
(dp1316
g3
S'Sharma'
p1317
sg5
S'no run'
p1318
sg7
S' McClenaghan'
p1319
sg9
S'\nbowls a shortish length which rises on Sharma as he fends this away behind square on the off side  </p>]'
p1320
ssS'1.6'
p1321
(dp1322
g3
S'Sharma'
p1323
sg5
S'1 run'
p1324
sg7
S' McClenaghan'
p1325
sg9
S'\npitching outside leg as Rohit helps this along to deep fine leg  </p>]'
p1326
ssS'1.1'
p1327
(dp1328
g3
S'Dhawan'
p1329
sg5
S'3 runs'
p1330
sg7
S' McClenaghan'
p1331
sg9
S"\nfull and on the pads as Dhawan clips this well towards deep midwicket  but doesn't get enough on the ball for it to reach the boundary  </p>]"
p1332
ssS'1.2'
p1333
(dp1334
g3
S'Sharma'
p1335
sg5
S'no run'
p1336
sg7
S' McClenaghan'
p1337
sg9
S'\nRohit solid in defence as he covers the line of this back of a length offering from Mitchell  </p>]'
p1338
ssS'1.3'
p1339
(dp1340
g3
S'Sharma'
p1341
sg5
S'1 run'
p1342
sg7
S' McClenaghan'
p1343
sg9
S'\nfull on the boots as this is played wide of fine leg  </p>]'
p1344
ssS'0.1'
p1345
(dp1346
g3
S'Sharma'
p1347
sg5
S'2 leg byes'
p1348
sg7
S' Southee'
p1349
sg9
S'\nangling down the pads as Sharma helps this off the pads behind square on the leg side. Ends up being called leg-byes by the umpires  </p>]'
p1350
ssS'30.2'
p1351
(dp1352
g3
S'Dhoni'
p1353
sg5
S'no run'
p1354
sg7
S' Milne'
p1355
sg9
S'\n142 kph  defended off the back foot straight back to the bowler  </p>]'
p1356
ssS'0.3'
p1357
(dp1358
g3
S'Sharma'
p1359
sg5
S'no run'
p1360
sg7
S' Southee'
p1361
sg9
S'\nshapes away on a fuller length outside off as Sharma looks to play himself in  </p>]'
p1362
ssS'0.2'
p1363
(dp1364
g3
S'Sharma'
p1365
sg5
S'no run'
p1366
sg7
S' Southee'
p1367
sg9
S'\nlength ball outside off which is left alone by the batsman  </p>]'
p1368
ssS'0.5'
p1369
(dp1370
g3
S'Sharma'
p1371
sg5
S'no run'
p1372
sg7
S' Southee'
p1373
sg9
S'\nback of a length as Sharma plays inside of the line  with the keeper collecting behind  </p>]'
p1374
ssS'0.4'
p1375
(dp1376
g3
S'Sharma'
p1377
sg5
S'no run'
p1378
sg7
S' Southee'
p1379
sg9
S'\ngets forward before playing this fuller one away to the off side  </p>]'
p1380
ssS'30.5'
p1381
(dp1382
g3
S'Dhoni'
p1383
sg5
S'no run'
p1384
sg7
S' Milne'
p1385
sg9
S'\n145 kph  negotiated carefully by Dhoni to the leg side  </p>]'
p1386
ssS'0.6'
p1387
(dp1388
g3
S'Sharma'
p1389
sg5
S'no run'
p1390
sg7
S' Southee'
p1391
sg9
S'\nlength outside off which is left alone by the batsman  </p>]'
p1392
ssS'38.3'
p1393
(dp1394
g3
S'Dhoni'
p1395
sg5
S'1 run'
p1396
sg7
S' Anderson'
p1397
sg9
S'\nsensibly drives the next one towards the covers for a single  </p>]'
p1398
ssS'36.5'
p1399
(dp1400
g3
S'Kohli'
p1401
sg5
S'no run'
p1402
sg7
S' Anderson'
p1403
sg9
S'\nthis one goes just past the outside edge as Kohli looks to run this down to third man  </p>]'
p1404
ssS'38.1'
p1405
(dp1406
g3
S'Dhoni'
p1407
sg5
S'no run'
p1408
sg7
S' Anderson'
p1409
sg9
S'\nends up playing this one back to the bowler  </p>]'
p1410
ssS'38.6'
p1411
(dp1412
g3
S'Kohli'
p1413
sg5
S'1 run'
p1414
sg7
S' Anderson'
p1415
sg9
S'\nsacheys down the track before unleashing a crunching drive to sweeper cover  </p>]'
p1416
ssS'38.5'
p1417
(dp1418
g3
S'Dhoni'
p1419
sg5
S'1 run'
p1420
sg7
S' Anderson'
p1421
sg9
S'\ndrags this one towards the leg side as Dhoni waits on it before pulling him behind square  but is unlucky to find backward square in the process  </p>]'
p1422
ssS'36.4'
p1423
(dp1424
g3
S'Kohli'
p1425
sg5
g26
sg7
S' Anderson'
p1426
sg9
S'\nand Kohli just blitzes this with his strong wrists through the gap at midwicket for a boundary  </p>]'
p1427
ssS'13.6'
p1428
(dp1429
g3
S'Dhawan'
p1430
sg5
S'1 run'
p1431
sg7
S' Milne'
p1432
sg9
S'\n149 kph  able to work this one away to the leg side and pinch a single  </p>]'
p1433
ssS'13.4'
p1434
(dp1435
g3
S'Kohli'
p1436
sg5
S'no run'
p1437
sg7
S' Milne'
p1438
sg9
S'\n145 kph  this one angling down the pads as Kohli looks to help it along to the fine leg boundary  but the ball brushes the thigh pad on its way to Ronchi. The NZ fielders appeal  but the umpire is aware of the pad deflection  </p>]'
p1439
ssS'13.5'
p1440
(dp1441
g3
S'Kohli'
p1442
sg5
S'1 run'
p1443
sg7
S' Milne'
p1444
sg9
S'\n145 kph  plays this one with soft hands to the off side as they set off for a quick single  and Dhawan is able to get home safely despite the diving throw  </p>]'
p1445
ssS'13.2'
p1446
(dp1447
g3
S'Dhawan'
p1448
sg5
S'1 run'
p1449
sg7
S' Milne'
p1450
sg9
S'\n149 kph  Dhawan able to get this away square on the leg side  and jogs to the other end for an easy single  </p>]'
p1451
ssS'13.3'
p1452
(dp1453
g3
S'Kohli'
p1454
sg5
S'no run'
p1455
sg7
S' Milne'
p1456
sg9
S'\n149 kph  tries to push this one through the leg side  but is late in his execution  </p>]'
p1457
ssS'13.1'
p1458
(dp1459
g3
S'Dhawan'
p1460
sg5
S'no run'
p1461
sg7
S' Milne'
p1462
sg9
S'\n147 kph  pushes this one across Dhawan  and at quite a rate of knots at that  </p>]'
p1463
ssS'4.5'
p1464
(dp1465
g3
S'Dhawan'
p1466
sg5
S'1 run'
p1467
sg7
S' Southee'
p1468
sg9
S'\nwidth on offer as Dhawan plays this one late to get it behind square  but Williamson  at backward point  is able to move well to his right to stop this from getting any further  </p>]'
p1469
ssS'4.4'
p1470
(dp1471
g3
S'Dhawan'
p1472
sg5
S'2 runs'
p1473
sg7
S' Southee'
p1474
sg9
S'\nplaces this one beautifully through extra-cover with a sublime drive  </p>]'
p1475
ssS'5.2'
p1476
(dp1477
g3
S'Sharma'
p1478
sg5
g129
sg7
S' McClenaghan'
p1479
sg9
S'\nand his torturous vigil at the crease comes to an end as he is suckered into playing a hook shot which is hit straight to the man placed at deep fine leg  who takes a comfortable catch. Really silly shot from Rohit as he must have been aware of the fielder in the deep  </p>]'
p1480
ssS'4.6'
p1481
(dp1482
g3
S'Sharma'
p1483
sg5
S'1 run'
p1484
sg7
S' Southee'
p1485
sg9
S'\nangling down the pads as this is clipped to square leg for a single. The batsmen wanted two  but the throw cancelled that prospect out  </p>]'
p1486
ssS'4.1'
p1487
(dp1488
g3
S'Dhawan'
p1489
sg5
S'no run'
p1490
sg7
S' Southee'
p1491
sg9
S'\nfull and just outside off as Dhawan times this one beautifully to the short cover fielder  </p>]'
p1492
ssS'5.5'
p1493
(dp1494
g3
S'Kohli'
p1495
sg5
g26
sg7
S' McClenaghan'
p1496
sg9
S'\njust oozes class with this full-bloodied drive through the covers to this fuller one from Mitchell. It just raced across the carpet as the balance was simply superb  </p>]'
p1497
ssS'4.3'
p1498
(dp1499
g3
S'Dhawan'
p1500
sg5
S'no run'
p1501
sg7
S' Southee'
p1502
sg9
S'\ntests him with an accurate bouncer as Dhawan swivels himself into position before deciding to abort and let it through to the keeper  </p>]'
p1503
ssS'4.2'
p1504
(dp1505
g3
S'Dhawan'
p1506
sg5
S'no run'
p1507
sg7
S' Southee'
p1508
sg9
S'\nangles this one towards the short cover fielder as he continues to look for the gaps on the off side  </p>]'
p1509
ssS'11.4'
p1510
(dp1511
g3
S'Kohli'
p1512
sg5
S'no run'
p1513
sg7
S' Milne'
p1514
sg9
S'\n150 kph  steers this one straight to mid-on  </p>]'
p1515
ssS'11.5'
p1516
(dp1517
g3
S'Kohli'
p1518
sg5
S'1 run'
p1519
sg7
S' Milne'
p1520
sg9
S'\n149 kph  able to get this back of a length delivery to the leg side  and pinch a quick single  </p>]'
p1521
ssS'11.6'
p1522
(dp1523
g3
S'Dhawan'
p1524
sg5
S'no run'
p1525
sg7
S' Milne'
p1526
sg9
S'\n149 kph  simply pushes this last ball to the off side as Milne finishes well  </p>]'
p1527
ssS'11.1'
p1528
(dp1529
g3
S'Dhawan'
p1530
sg5
S'1 run'
p1531
sg7
S' Milne'
p1532
sg9
S'\n152 kph  plays this one close to the body as the ball travels behind to the leg side. Still manage to sneak a sneaky single  </p>]'
p1533
ssS'11.2'
p1534
(dp1535
g3
S'Kohli'
p1536
sg5
g26
sg7
S' Milne'
p1537
sg9
S'\n153 kph  just a mere push from Kohli finds the ball travelling all the way to the long-on boundary. He was well aware of the express pace on offer  </p>]'
p1538
ssS'11.3'
p1539
(dp1540
g3
S'Kohli'
p1541
sg5
S'no run'
p1542
sg7
S' Milne'
p1543
sg9
S'\n147 kph  Kohli almost undoing his good work as he fends at this one just outside off  </p>]'
p1544
ssS'17.2'
p1545
(dp1546
g3
S'Dhawan'
p1547
sg5
S'1 run'
p1548
sg7
S' NL McCullum'
p1549
sg9
S'\nstrides forward to meet this one before executing a quick single  </p>]'
p1550
ssS'17.3'
p1551
(dp1552
g3
S'Kohli'
p1553
sg5
S'1 run'
p1554
sg7
S' NL McCullum'
p1555
sg9
S'\nshuffles across his stumps before playing Nathan off the back foot towards square leg  </p>]'
p1556
ssS'17.1'
p1557
(dp1558
g3
S'Kohli'
p1559
sg5
S'1 run'
p1560
sg7
S' NL McCullum'
p1561
sg9
S'\nable to steer this one past the bowler to the fielder at long-on  </p>]'
p1562
ssS'17.6'
p1563
(dp1564
g3
S'Kohli'
p1565
sg5
S'no run'
p1566
sg7
S' NL McCullum'
p1567
sg9
S'\nquicker and on off  Kohli jabs it away to cover  where Ryder makes a gallant  diving stop  </p>]'
p1568
ssS'36.3'
p1569
(dp1570
g3
S'Dhoni'
p1571
sg5
S'1 run'
p1572
sg7
S' Anderson'
p1573
sg9
S"\nslower ball which is pulled away  this time by Dhoni  straight to the same fielder  who is given another go at the stumps at the non-striker's  but is lucky to get home in the end  </p>]"
p1574
ssS'17.4'
p1575
(dp1576
g3
S'Dhawan'
p1577
sg5
S'1 run'
p1578
sg7
S' NL McCullum'
p1579
sg9
S'\nheading down the pads as Dhawan is able to tuck this round the corner  </p>]'
p1580
ssS'17.5'
p1581
(dp1582
g3
S'Kohli'
p1583
sg5
S'no run'
p1584
sg7
S' NL McCullum'
p1585
sg9
S'\nworked off the back foot but straight to the fielder on the off side  </p>]'
p1586
ssS'47.1'
p1587
(dp1588
g3
S'Ashwin'
p1589
sg5
S'2 runs'
p1590
sg7
S' Williamson'
p1591
sg9
S"\nAshwin earns a life as he looks to clear Williamson over long-off  but this one isn't hit quite as well as he would have liked as this one dies before the boundary  evading a diving Brendon McCullum who can't quite get close enough as he runs backwards  </p>]"
p1592
ssS'47.3'
p1593
(dp1594
g3
S'Sharma'
p1595
sg5
S'1 run'
p1596
sg7
S' Williamson'
p1597
sg9
S'\nsteers this one straight to long-off for a single  </p>]'
p1598
ssS'36.2'
p1599
(dp1600
g3
S'Kohli'
p1601
sg5
S'1 run'
p1602
sg7
S' Anderson'
p1603
sg9
S'\nflicks this one going down the leg side straight to backward square  before setting off for a quick single  and is able to make it despite the throw at his end. Also passes Gambhir in the ODI runs list  </p>]'
p1604
ssS'47.5'
p1605
(dp1606
g3
S'Sharma'
p1607
sg5
S'1 run'
p1608
sg7
S' Williamson'
p1609
sg9
S"\nIshant throws caution to the wind with a blitz to long-off  but can't get it further than the fielder  </p>]"
p1610
ssS'47.2'
p1611
(dp1612
g3
S'Ashwin'
p1613
sg5
g129
sg7
S' Williamson'
p1614
sg9
S'\nAshwin baited to try the stroke  and he goes for it  as he lifts Williamson in that direction again  but this time Southee is able to lurch forward to take an excellent diving catch. Nine down now and India will feel their chances have been nullified  </p>]'
p1615
ssS'47.6'
p1616
(dp1617
g3
S'Shami'
p1618
sg5
S'1 run'
p1619
sg7
S' Williamson'
p1620
sg9
S'\nplays this one towards the covers as the pair make a tight single  before getting another one courtesy of the overthrow  </p>]'
p1621
ssS'46.4'
p1622
(dp1623
g3
S'Ashwin'
p1624
sg5
S'no run'
p1625
sg7
S' McClenaghan'
p1626
sg9
S'\npitches this up a bit further outside off as Ashwin fails to get bat on ball  </p>]'
p1627
ssS'46.5'
p1628
(dp1629
g3
S'Ashwin'
p1630
sg5
S'2 runs'
p1631
sg7
S' McClenaghan'
p1632
sg9
S"\nthis time goes for the lofted shot over extra-cover  deliberating taking his hand off the handle after executing the stroke  to ensure it isn't hit a little too well as to find a fielder in the deep  </p>]"
p1633
ssS'46.6'
p1634
(dp1635
g3
S'Ashwin'
p1636
sg5
S'1 run'
p1637
sg7
S' McClenaghan'
p1638
sg9
S"\nramps this one outside off down to the man at third man  and also ends McClenaghan's spell  as he finishes with an impressive 4 for 68. Seems to collect four-wicket hauls like stamps  </p>]"
p1639
ssS'46.1'
p1640
(dp1641
g3
S'Sharma'
p1642
sg5
S'no run'
p1643
sg7
S' McClenaghan'
p1644
sg9
S'\nlength just outside off as Ishant has a go at it  </p>]'
p1645
ssS'46.2'
p1646
(dp1647
g3
S'Sharma'
p1648
sg5
S'1 run'
p1649
sg7
S' McClenaghan'
p1650
sg9
S'\non the back foot as this is fended away to the off side for a quick single  </p>]'
p1651
ssS'5.1'
p1652
(dp1653
g3
S'Sharma'
p1654
sg5
S'no run'
p1655
sg7
S' McClenaghan'
p1656
sg9
S'\nfires in a yorker which is directed towards the covers by Rohit  </p>]'
p1657
ssS'5.3'
p1658
(dp1659
g3
S'Kohli'
p1660
sg5
S'no run'
p1661
sg7
S' McClenaghan'
p1662
sg9
S'\nbegins by shouldering arms to this length ball pushed across him  </p>]'
p1663
ssS'41.1'
p1664
(dp1665
g3
S'Kohli'
p1666
sg5
S'1 run'
p1667
sg7
S' Southee'
p1668
sg9
S'\ncaressed down to third man for one  </p>]'
p1669
ssS'29.5'
p1670
(dp1671
g3
S'Dhoni'
p1672
sg5
S'1 run'
p1673
sg7
S' Southee'
p1674
sg9
S'\ncrunches this off the back foot through the gap at point  but sweeper cover has got it covered  </p>]'
p1675
ssS'5.4'
p1676
(dp1677
g3
S'Kohli'
p1678
sg5
S'no run'
p1679
sg7
S' McClenaghan'
p1680
sg9
S'\nonce again can not be enticed to go after this wide one from Mitchell  </p>]'
p1681
ssS'29.6'
p1682
(dp1683
g3
S'Kohli'
p1684
sg5
S'2 runs'
p1685
sg7
S' Southee'
p1686
sg9
S'\nfull and on the pads as Kohli flicks this down to deep square leg  with the pair booking it to make the second run before the throw from the deep  but it was close  </p>]'
p1687
ssS'29.1'
p1688
(dp1689
g3
S'Dhoni'
p1690
sg5
S'2 runs'
p1691
sg7
S' Southee'
p1692
sg9
S'\nangled away to the leg side for a brace. These two are very quick between the stumps  </p>]'
p1693
ssS'29.3'
p1694
(dp1695
g3
S'Dhoni'
p1696
sg5
S'no run'
p1697
sg7
S' Southee'
p1698
sg9
S'\npunches this one off the back foot  but straight to the man at mid-off  </p>]'
p1699
ssS'9.60'
p1700
(dp1701
g3
S'Dhawan'
p1702
sg5
g183
sg7
S' Milne'
p1703
sg9
S'\n142 kph  fires in a short one which climbs appreciably as the umpire signals a wide  </p>]'
p1704
ssS'15.1'
p1705
(dp1706
g3
S'Dhawan'
p1707
sg5
S'1 run'
p1708
sg7
S' Milne'
p1709
sg9
S'\n147 kph  uses the pace to get this one down to third man. The single also brings up the fifty-run partnership between these two  </p>]'
p1710
ssS'15.2'
p1711
(dp1712
g3
S'Kohli'
p1713
sg5
S'2 runs'
p1714
sg7
S' Milne'
p1715
sg9
S'\n147 kph  times this one sweetly through midwicket  but is pulled back by the boundary rider on the leg side  </p>]'
p1716
ssS'15.3'
p1717
(dp1718
g3
S'Kohli'
p1719
sg5
S'1 run'
p1720
sg7
S' Milne'
p1721
sg9
S'\n143 kph  guides this one off the back foot towards third man  </p>]'
p1722
ssS'15.4'
p1723
(dp1724
g3
S'Dhawan'
p1725
sg5
S'no run'
p1726
sg7
S' Milne'
p1727
sg9
S'\n147 kph  mistimes this drive towards the leg side  </p>]'
p1728
ssS'5.6'
p1729
(dp1730
g3
S'Kohli'
p1731
sg5
S'no run'
p1732
sg7
S' McClenaghan'
p1733
sg9
S'\nonce again in the slot but he ends up mistiming it to the short cover fielder  </p>]'
p1734
ssS'15.6'
p1735
(dp1736
g3
S'Dhawan'
p1737
sg5
S'no run'
p1738
sg7
S' Milne'
p1739
sg9
S'\n145 kph  slaps this short one away to point on the bounce to end the over  </p>]'
p1740
ssS'44.3'
p1741
(dp1742
g3
S'Kumar'
p1743
sg5
S'2 runs'
p1744
sg7
S' McClenaghan'
p1745
sg9
S'\ndrills this one straight back towards long-on for a couple  </p>]'
p1746
ssS'48.2'
p1747
(dp1748
g3
S'Shami'
p1749
sg5
S'1 run'
p1750
sg7
S' Southee'
p1751
sg9
S'\nfires in a yorker which Shami is able to get away to extra-cover  </p>]'
p1752
ssS'48.1'
p1753
(dp1754
g3
S'Shami'
p1755
sg5
g26
sg7
S' Southee'
p1756
sg9
S'\nfull and on the pads as Shami just flicks this effortlessly through square leg  beating the converging fielders to the boundary  </p>]'
p1757
ssS'47.4'
p1758
(dp1759
g3
S'Shami'
p1760
sg5
S'1 run'
p1761
sg7
S' Williamson'
p1762
sg9
S'\nflicked to fine leg for another useful single  but albeit a bit too late in the match  </p>]'
p1763
ssS'1.20'
p1764
(dp1765
g3
S'Sharma'
p1766
sg5
g183
sg7
S' McClenaghan'
p1767
sg9
S'\nsplayed down the leg side as the umpire calls a wide  </p>]'
p1768
ss.