(dp0
S'33.5'
p1
(dp2
S'to'
p3
S'Dhoni'
p4
sS'what'
p5
S'1 run'
p6
sS'from'
p7
S' McClenaghan'
p8
sS'why'
p9
S'\nlength on and around off as this one strikes Dhoni on the pads  but it looks as though he got an inside-edge as Mitch goes for the appeal  </p>]'
p10
ssS'35.2'
p11
(dp12
g3
S'Dhoni'
p13
sg5
S'4 run'
p14
sg7
S' McClenaghan'
p15
sg9
S'\nagain on the pads from McClenaghan and he is punished with a delightful clip which races to the fine leg boundary  with no fielder in sight  </p>]'
p16
ssS'35.3'
p17
(dp18
g3
S'Dhoni'
p19
sg5
S'1 leg bye'
p20
sg7
S' McClenaghan'
p21
sg9
S'\nonce again on the pads  but this time crashes into the thigh pad of Dhoni as this is called a leg-bye  </p>]'
p22
ssS'35.1'
p23
(dp24
g3
S'Dhoni'
p25
sg5
S'no run'
p26
sg7
S' McClenaghan'
p27
sg9
S'\npushes this one off the back foot  and then takes a few steps down the track  but is then sent back by the non-striker as the fielder is already on the ball  </p>]'
p28
ssS'35.6'
p29
(dp30
g3
S'Raina'
p31
sg5
S'1 run'
p32
sg7
S' McClenaghan'
p33
sg9
S'\nshortish length which is helped down to deep fine leg with a swivel  </p>]'
p34
ssS'35.4'
p35
(dp36
g3
S'Raina'
p37
sg5
S'no run'
p38
sg7
S' McClenaghan'
p39
sg9
S'\nfuller one angling in on off as Raina deflects this back towards the bowler  </p>]'
p40
ssS'35.5'
p41
(dp42
g3
S'Raina'
p43
sg5
g14
sg7
S' McClenaghan'
p44
sg9
S'\nfuller one on middle and leg which is slammed over cow corner by Raina for a boundary. Can he play an integral knock for India today?  </p>]'
p45
ssS'7.2'
p46
(dp47
g3
S'Sharma'
p48
sg5
S'1 run'
p49
sg7
S' Southee'
p50
sg9
S'\nwent for an expansive drive as he gets a thick outside edge which goes to third man  </p>]'
p51
ssS'6.6'
p52
(dp53
g3
S'Dhawan'
p54
sg5
S'no run'
p55
sg7
S' Mills'
p56
sg9
S'\ntries to work away this delivery shaping into the batsman on the leg side  but Dhawan ends up isnide-edging onto himself  </p>]'
p57
ssS'12.1'
p58
(dp59
g3
S'Kohli'
p60
sg5
S'1 run'
p61
sg7
S' NL McCullum'
p62
sg9
S'\nshort of a length  outside leg  worked away for a single  </p>]'
p63
ssS'7.1'
p64
(dp65
g3
S'Sharma'
p66
sg5
S'no run'
p67
sg7
S' Southee'
p68
sg9
S'\ngets this one to just nibble away outside off as Rohit lets it through  </p>]'
p69
ssS'6.3'
p70
(dp71
g3
S'Sharma'
p72
sg5
S'1 run'
p73
sg7
S' Mills'
p74
sg9
S'\nlength outside off which is dabbed down to third man for one  </p>]'
p75
ssS'12.6'
p76
(dp77
g3
S'Rahane'
p78
sg5
S'1 run'
p79
sg7
S' NL McCullum'
p80
sg9
S'\nshort of a length again  bunted away for an easy single behind square on the leg side  </p>]'
p81
ssS'6.1'
p82
(dp83
g3
S'Sharma'
p84
sg5
S'no run'
p85
sg7
S' Mills'
p86
sg9
S'\nback of a length and left well alone by Sharma  </p>]'
p87
ssS'12.4'
p88
(dp89
g3
S'Rahane'
p90
sg5
S'no run'
p91
sg7
S' NL McCullum'
p92
sg9
S"\ntossed up generously  driven down the ground  but not past NMac's reach  </p>]"
p93
ssS'37.1'
p94
(dp95
g3
S'Jadeja'
p96
sg5
S'1 run'
p97
sg7
S' Anderson'
p98
sg9
S'\nshort ball outside off which Jadeja helps down to short third man for a single. Sensible cricket from the allrounder as Dhoni will need most of the strike from here on in  </p>]'
p99
ssS'37.2'
p100
(dp101
g3
S'Dhoni'
p102
sg5
g14
sg7
S' Anderson'
p103
sg9
S'\n<b>dropped</b> Southee what have you done? You were with Dhoni at CSK  you should know better than to drop him at <i>this</i> stage of the match as Dhoni hammers one from Corey  but this one goes quite high up  threatening not to reach the midwicket boundary  but Southee is unable to get a grasp on it as he lets it fall before continuing on to the rope  </p>]'
p104
ssS'37.3'
p105
(dp106
g3
S'Dhoni'
p107
sg5
g14
sg7
S' Anderson'
p108
sg9
S'\nand luck continues to ride with Dhoni as he ends up getting a thick outside edge to this length ball outside off  which deflects to the keeper  who is unable to get his paws on it as it continues to the right of him to the third man boundary for yet another fortuitous boundary  </p>]'
p109
ssS'37.4'
p110
(dp111
g3
S'Dhoni'
p112
sg5
S'1 run'
p113
sg7
S' Anderson'
p114
sg9
S'\ngets a leading edge of this slower ball on middle as this is directed to the off side  </p>]'
p115
ssS'37.5'
p116
(dp117
g3
S'Jadeja'
p118
sg5
S'1 run'
p119
sg7
S' Anderson'
p120
sg9
S'\nshort of a length as Jadeja goes for the cut  and gets a thickish edge which allows for the single  </p>]'
p121
ssS'37.6'
p122
(dp123
g3
S'Dhoni'
p124
sg5
S'no run'
p125
sg7
S' Anderson'
p126
sg9
S'\ndefended off the back foot to the bowler  and then calls for a quick single as Dhoni tells him to go back  with Jadeja able to beat Anderson to the other end  </p>]'
p127
ssS'10.1'
p128
(dp129
g3
S'Rahane'
p130
sg5
S'no run'
p131
sg7
S' Mills'
p132
sg9
S'\nshort of a length  stump to stump  defended by Rahane  </p>]'
p133
ssS'10.3'
p134
(dp135
g3
S'Kohli'
p136
sg5
S'2 runs'
p137
sg7
S' Mills'
p138
sg9
S'\nsuperb shot. Kohli has spoken about always trying to pull in front of square where he is less likely to be caught. That is what he does here  and manages to clear midwicket  </p>]'
p139
ssS'10.2'
p140
(dp141
g3
S'Rahane'
p142
sg5
S'1 run'
p143
sg7
S' Mills'
p144
sg9
S'\nbouncer  head high  Rahane manages to keep the pull down  gets a single  </p>]'
p145
ssS'10.5'
p146
(dp147
g3
S'Kohli'
p148
sg5
S'1 run'
p149
sg7
S' Mills'
p150
sg9
S'\nshort of a length  on off  gets inside the line  and works it to leg for one  </p>]'
p151
ssS'10.4'
p152
(dp153
g3
S'Kohli'
p154
sg5
g14
sg7
S' Mills'
p155
sg9
S"\nthat's a risky shot. Uncharacteristic. Dancing down with just a prayer. Kohli doesn't usually leave that much to chance. This time  though  he manages to miss the cover field  </p>]"
p156
ssS'10.6'
p157
(dp158
g3
S'Rahane'
p159
sg5
S'no run'
p160
sg7
S' Mills'
p161
sg9
S'\nnice outswinger  just outside off  Rahane defends to mid-on  </p>]'
p162
ssS'34.4'
p163
(dp164
g3
S'Dhoni'
p165
sg5
S'1 run'
p166
sg7
S' Mills'
p167
sg9
S'\nhelped off the pads by Dhoni to the leg side as he wants a second  but Raina sends him back as he sees Guptill closing in on it  </p>]'
p168
ssS'33.3'
p169
(dp170
g3
S'Dhoni'
p171
sg5
S'1 run'
p172
sg7
S' McClenaghan'
p173
sg9
S'\nbanged in again as this time Dhoni is hurried into a pull  as he races to the other end  looking for that second  but Raina sends him back  </p>]'
p174
ssS'16.6'
p175
(dp176
g3
S'Kohli'
p177
sg5
S'1 run'
p178
sg7
S' NL McCullum'
p179
sg9
S'\npushes this last one off the back foot to midwicket to end the over  </p>]'
p180
ssS'16.5'
p181
(dp182
g3
S'Rahane'
p183
sg5
S'1 run'
p184
sg7
S' NL McCullum'
p185
sg9
S'\nafforded enough room outside off as Rahane cuts this away in front of square  with Anderson  at short cover  able to get a hand on it as it runs to the off side  </p>]'
p186
ssS'16.4'
p187
(dp188
g3
S'Kohli'
p189
sg5
S'1 run'
p190
sg7
S' NL McCullum'
p191
sg9
S'\nwhipped away down to deep midwicket for one  </p>]'
p192
ssS'16.3'
p193
(dp194
g3
S'Rahane'
p195
sg5
S'1 run'
p196
sg7
S' NL McCullum'
p197
sg9
S'\ngets deep in the crease to this one dragged by Nathan as he finds the man at deep midwicket  </p>]'
p198
ssS'16.2'
p199
(dp200
g3
S'Rahane'
p201
sg5
S'no run'
p202
sg7
S' NL McCullum'
p203
sg9
S'\nnegotiates this one carefully to the off side  </p>]'
p204
ssS'16.1'
p205
(dp206
g3
S'Rahane'
p207
sg5
g14
sg7
S' NL McCullum'
p208
sg9
S'\nRahane looking to clear the infield over extra-cover  but instead gets a fortuitous edge which helps the ball beat short third man to the boundary  </p>]'
p209
ssS'14.4'
p210
(dp211
g3
S'Kohli'
p212
sg5
S'no run'
p213
sg7
S' NL McCullum'
p214
sg9
S'\neased off the back foot to the leg side as he looks increasingly fidgety to get that run  </p>]'
p215
ssS'16.40'
p216
(dp217
g3
S'Kohli'
p218
sg5
S'1 wide'
p219
sg7
S' NL McCullum'
p220
sg9
S'\nis content to let this full delivery going down the leg side to the keeper  </p>]'
p221
ssS'26.6'
p222
(dp223
g3
S'Kohli'
p224
sg5
S'1 run'
p225
sg7
S' NL McCullum'
p226
sg9
S'\nsteps up to the pitch of the ball before driving this one to long-off for a single  </p>]'
p227
ssS'26.4'
p228
(dp229
g3
S'Dhoni'
p230
sg5
S'2 runs'
p231
sg7
S' NL McCullum'
p232
sg9
S"\nthis time is able to work it away to the leg side with soft hands for a quick single. The non-striker's stumps are thrown down as Dhoni seems to make his ground  and then returns for the second with the overthrow  </p>]"
p233
ssS'26.5'
p234
(dp235
g3
S'Dhoni'
p236
sg5
S'1 run'
p237
sg7
S' NL McCullum'
p238
sg9
S'\npunches this to the covers for a single  </p>]'
p239
ssS'26.2'
p240
(dp241
g3
S'Dhoni'
p242
sg5
S'no run'
p243
sg7
S' NL McCullum'
p244
sg9
S"\npushes this one tentatively to the leg side  but still can't buy a run  </p>]"
p245
ssS'26.3'
p246
(dp247
g3
S'Dhoni'
p248
sg5
g14
sg7
S' NL McCullum'
p249
sg9
S'\nspears this one just outside off as Dhoni is given enough room to club this one straight down the ground for a boundary  </p>]'
p250
ssS'26.1'
p251
(dp252
g3
S'Dhoni'
p253
sg5
S'no run'
p254
sg7
S' NL McCullum'
p255
sg9
S'\nDhoni just dead-bats this round the wicket offering from Nathan to the leg side  </p>]'
p256
ssS'14.5'
p257
(dp258
g3
S'Kohli'
p259
sg5
S'1 run'
p260
sg7
S' NL McCullum'
p261
sg9
S'\nand he finally succeeds with a gentle dab behind square  </p>]'
p262
ssS'12.3'
p263
(dp264
g3
S'Rahane'
p265
sg5
S'no run'
p266
sg7
S' NL McCullum'
p267
sg9
S'\nsome turn as this is flighted just outside off. Defended to leg  </p>]'
p268
ssS'14.6'
p269
(dp270
g3
S'Rahane'
p271
sg5
S'no run'
p272
sg7
S' NL McCullum'
p273
sg9
S'\ntries to get this one away through long-off as he backs away outside leg  but instead hits it back towards the bowler  </p>]'
p274
ssS'14.1'
p275
(dp276
g3
S'Kohli'
p277
sg5
S'no run'
p278
sg7
S' NL McCullum'
p279
sg9
S'\nKohli tries to work this one away to the leg side with a slog sweep  but instead hits this one straight to silly mid-on  </p>]'
p280
ssS'14.3'
p281
(dp282
g3
S'Kohli'
p283
sg5
S'2 runs'
p284
sg7
S' NL McCullum'
p285
sg9
S'\nmakes room for himself outside leg to play this one through the covers  </p>]'
p286
ssS'12.2'
p287
(dp288
g3
S'Rahane'
p289
sg5
S'no run'
p290
sg7
S' NL McCullum'
p291
sg9
S'\nflighted on off  defended to cover  </p>]'
p292
ssS'24.4'
p293
(dp294
g3
S'Kohli'
p295
sg5
S'no run'
p296
sg7
S' NL McCullum'
p297
sg9
S'\nthis time is able to make room to drive this to cover  but the fielder is equal to the task  </p>]'
p298
ssS'24.5'
p299
(dp300
g3
S'Kohli'
p301
sg5
S'1 run'
p302
sg7
S' NL McCullum'
p303
sg9
S'\ndrags this one down the leg side as Kohli steps down before whipping this off the pads to find the single  </p>]'
p304
ssS'24.6'
p305
(dp306
g3
S'Dhoni'
p307
sg5
S'no run'
p308
sg7
S' NL McCullum'
p309
sg9
S'\npresses forward to defend this one as Nathan bowls a tight over for New Zealand  </p>]'
p310
ssS'14.2'
p311
(dp312
g3
S'Kohli'
p313
sg5
S'no run'
p314
sg7
S' NL McCullum'
p315
sg9
S'\non the pads and flicked to midwicket for no runs  </p>]'
p316
ssS'6.5'
p317
(dp318
g3
S'Dhawan'
p319
sg5
S'no run'
p320
sg7
S' Mills'
p321
sg9
S'\ngets behind the line of this length ball on middle and off quite comfortably  </p>]'
p322
ssS'24.2'
p323
(dp324
g3
S'Kohli'
p325
sg5
S'no run'
p326
sg7
S' NL McCullum'
p327
sg9
S'\nshimmies down the track before hitting this one back to the bowler  </p>]'
p328
ssS'24.3'
p329
(dp330
g3
S'Kohli'
p331
sg5
S'no run'
p332
sg7
S' NL McCullum'
p333
sg9
S'\ntries to force this one through the leg side  but finds midwicket  </p>]'
p334
ssS'22.2'
p335
(dp336
g3
S'Kohli'
p337
sg5
S'1 run'
p338
sg7
S' NL McCullum'
p339
sg9
S'\non the front foot and plays that trademark whip square off the wicket on the leg side to bring up a <b>29th ODI fifty</b> </p>]'
p340
ssS'22.3'
p341
(dp342
g3
S'Rahane'
p343
sg5
S'no run'
p344
sg7
S' NL McCullum'
p345
sg9
S'\nRahane looks for the single on the leg side  </p>]'
p346
ssS'6.4'
p347
(dp348
g3
S'Dhawan'
p349
sg5
S'no run'
p350
sg7
S' Mills'
p351
sg9
S'\ndriven quite effortlessly to the man at short cover  </p>]'
p352
ssS'22.6'
p353
(dp354
g3
S'Kohli'
p355
sg5
S'no run'
p356
sg7
S' NL McCullum'
p357
sg9
S'\nturned away to the leg side to end the over  </p>]'
p358
ssS'22.4'
p359
(dp360
g3
S'Rahane'
p361
sg5
S'1 run'
p362
sg7
S' NL McCullum'
p363
sg9
S'\nRahane rushed into this shorter one from Nathan as he plays a short-arm pull which almost carries all the way to Guptill  coming in from deep midwicket  who is not quite able to put in the full stretch dive to catch it. Good effort again from Gups  </p>]'
p364
ssS'22.5'
p365
(dp366
g3
S'Kohli'
p367
sg5
S'2 runs  </p>]'
p368
sg7
S' NL McCullum'
p369
sg9
S''
p370
ssS'7.6'
p371
(dp372
g3
S'Kohli'
p373
sg5
g14
sg7
S' Southee'
p374
sg9
S'\nand Kohli straight away into the swing of things with the most genial of clips which just races to the midwicket boundary thanks to the extraordinary power packed in those wrists of his  </p>]'
p375
ssS'6.2'
p376
(dp377
g3
S'Sharma'
p378
sg5
S'no run'
p379
sg7
S' Mills'
p380
sg9
S'\ngets forward to try and work this one leg side  but instead hits to the off  </p>]'
p381
ssS'5.40'
p382
(dp383
g3
S'Dhawan'
p384
sg5
g219
sg7
S' McClenaghan'
p385
sg9
S"\nfires in a bouncer which climbs quite high over Dhawan's head as this is called a wide by the umpire  </p>]"
p386
ssS'7.4'
p387
(dp388
g3
S'Dhawan'
p389
sg5
S'OUT'
p390
sg7
S' Southee'
p391
sg9
S'\nand Southee gets him with a yorker on middle and off as the pressure put on these two batsmen have led to this serious error in judgment. Southee gets it in the right place as Dhawan charges him  but is not at all in position to play this as the ball rushes past him to get him bowled  </p>]'
p392
ssS'34.6'
p393
(dp394
g3
S'Raina'
p395
sg5
S'2 runs'
p396
sg7
S' Mills'
p397
sg9
S'\nfull toss which is sliced away by Raina to deep extra-cover  with Guptill diving to his left to stop this before it reaches the boundary. Has been fantastic out there for NZ tonight  </p>]'
p398
ssS'34.5'
p399
(dp400
g3
S'Raina'
p401
sg5
S'no run'
p402
sg7
S' Mills'
p403
sg9
S'\nwell bowled from Mills as he gets this full and wide outside off  with Raina unable to get bat on ball to send this through third man  </p>]'
p404
ssS'7.5'
p405
(dp406
g3
S'Kohli'
p407
sg5
S'no run'
p408
sg7
S' Southee'
p409
sg9
S'\nangling in on Kohli as he gets a leading edge to the covers  </p>]'
p410
ssS'34.3'
p411
(dp412
g3
S'Raina'
p413
sg5
S'1 run'
p414
sg7
S' Mills'
p415
sg9
S'\nyorker on middle as Raina backs away before driving this down to long-off  </p>]'
p416
ssS'34.2'
p417
(dp418
g3
S'Dhoni'
p419
sg5
S'1 run'
p420
sg7
S' Mills'
p421
sg9
S'\nthis time is able to work this off the pads to the leg side for one  </p>]'
p422
ssS'34.1'
p423
(dp424
g3
S'Dhoni'
p425
sg5
S'no run'
p426
sg7
S' Mills'
p427
sg9
S'\nspeared in from round the wicket as Dhoni is unable to get this one away  </p>]'
p428
ssS'24.1'
p429
(dp430
g3
S'Dhoni'
p431
sg5
S'1 run'
p432
sg7
S' NL McCullum'
p433
sg9
S'\nslanting down the pads as Dhoni helps this along behind square  </p>]'
p434
ssS'3.6'
p435
(dp436
g3
S'Sharma'
p437
sg5
S'no run'
p438
sg7
S' McClenaghan'
p439
sg9
S'\non the back foot rigtht away as this is defended towards the covers  </p>]'
p440
ssS'3.4'
p441
(dp442
g3
S'Sharma'
p443
sg5
S'no run'
p444
sg7
S' McClenaghan'
p445
sg9
S'\nstrikes him full on the pads as Rohit has a gentle waft at it  missing the ball entirely. McClenaghan likes it straightaway as he appeals to the umpire  but Rod Tucker determines that this was being pitched outside leg and was doing a bit too much  </p>]'
p446
ssS'3.5'
p447
(dp448
g3
S'Sharma'
p449
sg5
S'no run'
p450
sg7
S' McClenaghan'
p451
sg9
S'\ntoo full from Mitchell as this is driven straight to short cover  </p>]'
p452
ssS'3.2'
p453
(dp454
g3
S'Sharma'
p455
sg5
S'no run'
p456
sg7
S' McClenaghan'
p457
sg9
S'\nworked off the hips to the leg side  but straight to the fielder  </p>]'
p458
ssS'3.3'
p459
(dp460
g3
S'Sharma'
p461
sg5
S'no run'
p462
sg7
S' McClenaghan'
p463
sg9
S'\nplays this one with soft hands to the off side  </p>]'
p464
ssS'3.1'
p465
(dp466
g3
S'Dhawan'
p467
sg5
S'1 run'
p468
sg7
S' McClenaghan'
p469
sg9
S'\nfends this shortish length away behind square on the leg side  </p>]'
p470
ssS'2.3'
p471
(dp472
g3
S'Sharma'
p473
sg5
S'no run'
p474
sg7
S' Mills'
p475
sg9
S"\nplays this one with soft hands to the leg side  but can't pinch a single  </p>]"
p476
ssS'2.2'
p477
(dp478
g3
S'Sharma'
p479
sg5
S'no run'
p480
sg7
S' Mills'
p481
sg9
S'\nshortish length outside off as Rohit fails to cut this away square off the wicket  </p>]'
p482
ssS'2.1'
p483
(dp484
g3
S'Sharma'
p485
sg5
S'no run'
p486
sg7
S' Mills'
p487
sg9
S'\nworked away off the back foot by Rohit  </p>]'
p488
ssS'36.6'
p489
(dp490
g3
S'Dhoni'
p491
sg5
S'2 runs'
p492
sg7
S' Mills'
p493
sg9
S"\nDhoni just stands his ground and hammers this length ball over midwicket  but doesn't have enough on it for it to reach the boundary as deep midwicket is quick to get it  </p>]"
p494
ssS'36.1'
p495
(dp496
g3
S'Raina'
p497
sg5
g390
sg7
S' Mills'
p498
sg9
S'\nand Mills strikes as Raina is baited to go after a fuller one on leg which is hit higher than father towards midwicket  with Southee getting under it comfortably to take this catch. Big wicket for NZ  but the one they really want is still at the crease  </p>]'
p499
ssS'2.6'
p500
(dp501
g3
S'Sharma'
p502
sg5
S'no run'
p503
sg7
S' Mills'
p504
sg9
S'\nmeets this one outside off as he plays this one tentatively to the off side to end the over. Ends a second consecutive maiden for Mills as well  </p>]'
p505
ssS'2.5'
p506
(dp507
g3
S'Sharma'
p508
sg5
S'no run'
p509
sg7
S' Mills'
p510
sg9
S'\npresses forward to defend this fuller one from Mills  </p>]'
p511
ssS'2.4'
p512
(dp513
g3
S'Sharma'
p514
sg5
S'no run'
p515
sg7
S' Mills'
p516
sg9
S'\nlength ball outside off which is met with the full face of the bat  </p>]'
p517
ssS'20.1'
p518
(dp519
g3
S'Kohli'
p520
sg5
S'no run'
p521
sg7
S' NL McCullum'
p522
sg9
S'\nKohli tries to get this one away over Nathan  but ends up hitting it back to the bowler  </p>]'
p523
ssS'20.2'
p524
(dp525
g3
S'Kohli'
p526
sg5
S'1 run'
p527
sg7
S' NL McCullum'
p528
sg9
S'\nis able to fashion a single with a quick glance to the leg side  </p>]'
p529
ssS'20.3'
p530
(dp531
g3
S'Rahane'
p532
sg5
S'no run'
p533
sg7
S' NL McCullum'
p534
sg9
S'\nfull and on the pads as Rahane merely sticks his bat out to angle this straight to short backward square  </p>]'
p535
ssS'20.4'
p536
(dp537
g3
S'Rahane'
p538
sg5
S'1 run'
p539
sg7
S' NL McCullum'
p540
sg9
S'\nworks this one away to long-on for one  </p>]'
p541
ssS'20.5'
p542
(dp543
g3
S'Kohli'
p544
sg5
S'no run'
p545
sg7
S' NL McCullum'
p546
sg9
S'\ndefended away by Kohli to the leg side  </p>]'
p547
ssS'20.6'
p548
(dp549
g3
S'Kohli'
p550
sg5
S'1 run'
p551
sg7
S' NL McCullum'
p552
sg9
S'\nadvances down before clipping fiercely to long-on to retain the strike  </p>]'
p553
ssS'22.1'
p554
(dp555
g3
S'Rahane'
p556
sg5
S'1 run'
p557
sg7
S' NL McCullum'
p558
sg9
S'\nRahane finds the single straight away with a gentle clip down to long-on  </p>]'
p559
ssS'39.1'
p560
(dp561
g3
S'Dhoni'
p562
sg5
g390
sg7
S' Anderson'
p563
sg9
S'\nand Dhoni tries his luck one more time  but it ceases to come to fruition as he miscues this lofted shot off Anderson  with the ball travelling behind to backward point  where Williamson was able to get under the steepler  and more importantly  hold onto the chance. Ends a spirited innings from the Indian captain  </p>]'
p564
ssS'21.5'
p565
(dp566
g3
S'Kohli'
p567
sg5
S'1 run'
p568
sg7
S' Anderson'
p569
sg9
S'\nand this time gets on one knee to just blitz Anderson through the covers for a single. Moves to 49 as a result. Virat continuing to live up to his reputation  </p>]'
p570
ssS'40.2'
p571
(dp572
g3
S'Ashwin'
p573
sg5
g14
sg7
S' Southee'
p574
sg9
S'\nclears his front leg before clobbering Southee through long-on for a boundary  </p>]'
p575
ssS'40.3'
p576
(dp577
g3
S'Ashwin'
p578
sg5
g390
sg7
S' Southee'
p579
sg9
S"\nAshwin has a high backlift and is already in position to get under this as he swats this fuller one over midwicket  but straight into the hands of deep midwicket  and it is that man  Guptill  who takes the catch. Just can't keep the NZ opener out of the match  </p>]"
p580
ssS'40.1'
p581
(dp582
g3
S'Kumar'
p583
sg5
S'1 run'
p584
sg7
S' Southee'
p585
sg9
S'\nmanages to dig this one out to the leg side for one  </p>]'
p586
ssS'40.6'
p587
(dp588
g3
S'Kumar'
p589
sg5
S'1 run'
p590
sg7
S' Southee'
p591
sg9
S'\nfull on middle as Kumar is able to squeeze this away behind square to the fielder at third man  </p>]'
p592
ssS'40.4'
p593
(dp594
g3
S'Kumar'
p595
sg5
g14
sg7
S' Southee'
p596
sg9
S'\ntries to make room to free his arms and succeeds in sticking out his bat to divert this past the keeper to the third man rope  </p>]'
p597
ssS'40.5'
p598
(dp599
g3
S'Kumar'
p600
sg5
g14
sg7
S' Southee'
p601
sg9
S'\nslower ball outside off which Kumar sees early as he waits on it before thrashing this over extra-cover for a much-needed boundary  </p>]'
p602
ssS'27.3'
p603
(dp604
g3
S'Kohli'
p605
sg5
S'1 run'
p606
sg7
S' McClenaghan'
p607
sg9
S'\nable to tuck this fuller one on the pads down to deep fine leg  </p>]'
p608
ssS'27.2'
p609
(dp610
g3
S'Dhoni'
p611
sg5
S'1 run'
p612
sg7
S' McClenaghan'
p613
sg9
S'\nfuller one just outside off which is pushed off the back foot towards mid-off  </p>]'
p614
ssS'27.1'
p615
(dp616
g3
S'Kohli'
p617
sg5
S'1 run'
p618
sg7
S' McClenaghan'
p619
sg9
S'\noff the back foot and helped to the leg side by Kohli  </p>]'
p620
ssS'21.6'
p621
(dp622
g3
S'Rahane'
p623
sg5
S'1 run'
p624
sg7
S' Anderson'
p625
sg9
S'\nRahane forces this one away on the off side for one  </p>]'
p626
ssS'27.6'
p627
(dp628
g3
S'Dhoni'
p629
sg5
S'no run'
p630
sg7
S' McClenaghan'
p631
sg9
S'\nfuller one just outside off which ends up being hit back towards the bowler  as Dhoni was looking to go more through extra-cover  </p>]'
p632
ssS'27.5'
p633
(dp634
g3
S'Dhoni'
p635
sg5
S'no run'
p636
sg7
S' McClenaghan'
p637
sg9
S'\nonce again coming in from outside off as Dhoni is having a bit of difficulty working McClenaghan away to the leg side  </p>]'
p638
ssS'27.4'
p639
(dp640
g3
S'Dhoni'
p641
sg5
S'no run'
p642
sg7
S' McClenaghan'
p643
sg9
S'\nslanting in from outside off as Dhoni inside-edges onto his groin  </p>]'
p644
ssS'21.1'
p645
(dp646
g3
S'Kohli'
p647
sg5
S'2 runs'
p648
sg7
S' Anderson'
p649
sg9
S'\nswipes this length ball away to the leg side  </p>]'
p650
ssS'12.5'
p651
(dp652
g3
S'Rahane'
p653
sg5
S'no run'
p654
sg7
S' NL McCullum'
p655
sg9
S"\nshort of a length  on off  turned away  but can't beat midwicket  </p>]"
p656
ssS'30.4'
p657
(dp658
g3
S'Dhoni'
p659
sg5
g14
sg7
S' Anderson'
p660
sg9
S'\ntoo easy for Dhoni as this is short and wide with Dhoni able to get under it and ramp it over the third man region for a boundary  </p>]'
p661
ssS'25.1'
p662
(dp663
g3
S'Kohli'
p664
sg5
S'no run'
p665
sg7
S' McClenaghan'
p666
sg9
S'\nthis one curls into Kohli off a shortish length as he defends off the back foot  </p>]'
p667
ssS'25.3'
p668
(dp669
g3
S'Dhoni'
p670
sg5
S'1 run'
p671
sg7
S' McClenaghan'
p672
sg9
S'\na bit further up from McClenaghan  but on the same line  as Dhoni swivels to pull this away to fine leg  </p>]'
p673
ssS'25.2'
p674
(dp675
g3
S'Kohli'
p676
sg5
S'1 run'
p677
sg7
S' McClenaghan'
p678
sg9
S'\nshort from McClenaghan as Kohli is not afraid to go after him with a hit down to deep midwicket  </p>]'
p679
ssS'25.5'
p680
(dp681
g3
S'Kohli'
p682
sg5
S'no run'
p683
sg7
S' McClenaghan'
p684
sg9
S'\ndefends this latest offering carefully to the leg side  </p>]'
p685
ssS'25.4'
p686
(dp687
g3
S'Kohli'
p688
sg5
S'2 runs'
p689
sg7
S' McClenaghan'
p690
sg9
S'\nanother short one as Kohli pulls this one into the ground towards long-on  </p>]'
p691
ssS'25.6'
p692
(dp693
g3
S'Kohli'
p694
sg5
g14
sg7
S' McClenaghan'
p695
sg9
S'\nfuller one on middle and off as Kohli backs away to create room before slicing him behind square  with a converging sweeper cover  despite putting in the dive  is unable to stop it from tickling the rope at the square boundary. Fantastic improvisation from the Delhite  </p>]'
p696
ssS'21.2'
p697
(dp698
g3
S'Kohli'
p699
sg5
g14
sg7
S' Anderson'
p700
sg9
S'\nin the correct position to this back of a length ball as he just pulls Anderson in the gap behind square to find the boundary  </p>]'
p701
ssS'28.6'
p702
(dp703
g3
S'Kohli'
p704
sg5
S'1 run'
p705
sg7
S' Anderson'
p706
sg9
S'\nchecks his shot as he plays this one straight to short cover for a tight single  </p>]'
p707
ssS'23.6'
p708
(dp709
g3
S'Dhoni'
p710
sg5
S'1 run'
p711
sg7
S' McClenaghan'
p712
sg9
S'\nshort from McClenaghan and dispatched by the Indian captain to deep fine leg  </p>]'
p713
ssS'23.5'
p714
(dp715
g3
S'Dhoni'
p716
sg5
S'no run'
p717
sg7
S' McClenaghan'
p718
sg9
S'\nand he starts with a back foot defence which is pushed to the bowler  </p>]'
p719
ssS'21.30'
p720
(dp721
g3
S'Kohli'
p722
sg5
g219
sg7
S' Anderson'
p723
sg9
S'\nslanting down the leg side from Anderson as the umpire signals a wide  </p>]'
p724
ssS'23.3'
p725
(dp726
g3
S'Rahane'
p727
sg5
S'no run'
p728
sg7
S' McClenaghan'
p729
sg9
S'\nanother attempted yorker  this time outside off  as Rahane tries to squirt this away behind square on the off side  </p>]'
p730
ssS'23.2'
p731
(dp732
g3
S'Kohli'
p733
sg5
S'1 run'
p734
sg7
S' McClenaghan'
p735
sg9
S'\nzeroing in on the pads as Kohli flicks this effortlessly to square leg  </p>]'
p736
ssS'23.1'
p737
(dp738
g3
S'Rahane'
p739
sg5
S'1 run'
p740
sg7
S' McClenaghan'
p741
sg9
S'\nback of a length and pushed to the off side by Rahane  </p>]'
p742
ssS'32.1'
p743
(dp744
g3
S'Raina'
p745
sg5
S'no run'
p746
sg7
S' Mills'
p747
sg9
S"\nuses his feet to time this one to the off side as the pair start off for a single. Guptill picks this one up at silly mid-on before firing in a throw which just bounces over the stumps as this looked in line to hit. Raina lucky to get away with this one as Gups doesn't miss often  </p>]"
p748
ssS'32.3'
p749
(dp750
g3
S'Raina'
p751
sg5
g14
sg7
S' Mills'
p752
sg9
S'\nshort one from Mills which Raina is able to get on top off and hook to the fine leg boundary. If NZ are to employ these tactics  surely they should have a deep fine leg in place?  </p>]'
p753
ssS'32.2'
p754
(dp755
g3
S'Raina'
p756
sg5
g14
sg7
S' Mills'
p757
sg9
S'\nfull toss just outside off as Raina drives this on the full to mid-off  who makes a complete hash of it as this is allowed through between the legs to the long-off boundary  </p>]'
p758
ssS'32.5'
p759
(dp760
g3
S'Dhoni'
p761
sg5
S'1 run'
p762
sg7
S' Mills'
p763
sg9
S'\ngoing round the wicket now as Dhoni is able to gently clip this fuller one on the pads to the man at fine leg  </p>]'
p764
ssS'32.4'
p765
(dp766
g3
S'Raina'
p767
sg5
S'1 run'
p768
sg7
S' Mills'
p769
sg9
S'\nthis time with the attempted yorker as this low full toss is drilled straight to long-on  </p>]'
p770
ssS'32.6'
p771
(dp772
g3
S'Raina'
p773
sg5
S'no run'
p774
sg7
S' Mills'
p775
sg9
S'\ndrives this low full toss straight to long-off  but hits it a bit too well for the run to be attempted  </p>]'
p776
ssS'33.4'
p777
(dp778
g3
S'Raina'
p779
sg5
S'1 run'
p780
sg7
S' McClenaghan'
p781
sg9
S'\ngoes full this time as Raina is equal to it with a full-bloodied drive to the right of the bowler  with mid-off putting in a dive to stop this one  </p>]'
p782
ssS'19.4'
p783
(dp784
g3
S'Rahane'
p785
sg5
g14
sg7
S' Anderson'
p786
sg9
S'\nbouncer from Anderson which Rahane rocks back to before helping it along its way to the fine leg boundary with a pull  </p>]'
p787
ssS'33.6'
p788
(dp789
g3
S'Raina'
p790
sg5
g14
sg7
S' McClenaghan'
p791
sg9
S'\nin the slot as Raina is able to club this back over long-on to find the boundary  </p>]'
p792
ssS'33.1'
p793
(dp794
g3
S'Dhoni'
p795
sg5
S'no run'
p796
sg7
S' McClenaghan'
p797
sg9
S'\npunched off the back foot by Dhoni straight to silly mid-off  </p>]'
p798
ssS'33.2'
p799
(dp800
g3
S'Dhoni'
p801
sg5
g14
sg7
S' McClenaghan'
p802
sg9
S'\npulled away very fine to the boundary by Dhoni as this somehow runs away to the boundary. The angle of that shot made all the difference there  </p>]'
p803
ssS'19.5'
p804
(dp805
g3
S'Rahane'
p806
sg5
S'1 run'
p807
sg7
S' Anderson'
p808
sg9
S'\nflicked away uppishly through the leg side  </p>]'
p809
ssS'19.6'
p810
(dp811
g3
S'Kohli'
p812
sg5
S'1 run'
p813
sg7
S' Anderson'
p814
sg9
S'\nable to run this one down to short third man for a quick single  </p>]'
p815
ssS'40.50'
p816
(dp817
g3
S'Kumar'
p818
sg5
g219
sg7
S' Southee'
p819
sg9
S'\ntests him with a shorter one which Kumar is unable to reach  with the umpire signalling a wide  </p>]'
p820
ssS'29.4'
p821
(dp822
g3
S'Kohli'
p823
sg5
g390
sg7
S' Southee'
p824
sg9
S'\nand Kohli is gone. You read that right. Kohli is out. Once again looking to slam this one through midwicket  but instead lines up long-on quite nicely as the substitute takes a good low catch to remove the cavalier batsman. Ends a sublime innings as he had another hundred for the taking  </p>]'
p825
ssS'39.6'
p826
(dp827
g3
S'Ashwin'
p828
sg5
S'no run'
p829
sg7
S' Anderson'
p830
sg9
S"\nsteps out to meet this wide delivery outside off  as he gets low to stick his bat out to angle this past Ronchi  but can't get it fine enough as Ronchi is able to collect it from behind  </p>]"
p831
ssS'39.4'
p832
(dp833
g3
S'Jadeja'
p834
sg5
g390
sg7
S' Anderson'
p835
sg9
S'\nand Jadeja is gone with a swipe to the leg side to this slower ball on off. Is far too early in his shot as the ball goes on to knock down his off peg  </p>]'
p836
ssS'39.5'
p837
(dp838
g3
S'Kumar'
p839
sg5
S'1 run'
p840
sg7
S' Anderson'
p841
sg9
S'\nand begins with a single down to long-off  </p>]'
p842
ssS'39.2'
p843
(dp844
g3
S'Jadeja'
p845
sg5
S'1 run'
p846
sg7
S' Anderson'
p847
sg9
S'\nJadeja pulls this one fiercely in front of square for a single  </p>]'
p848
ssS'39.3'
p849
(dp850
g3
S'Ashwin'
p851
sg5
S'1 run'
p852
sg7
S' Anderson'
p853
sg9
S'\nAshwin mistimes this lofted shot through extra-cover  </p>]'
p854
ssS'19.1'
p855
(dp856
g3
S'Kohli'
p857
sg5
S'1 run'
p858
sg7
S' Anderson'
p859
sg9
S'\nsteps down the track before driving Anderson to long-off  </p>]'
p860
ssS'8.1'
p861
(dp862
g3
S'Sharma'
p863
sg5
S'no run'
p864
sg7
S' Mills'
p865
sg9
S"\nturns away this fuller one to the leg side  but can't pinch a single  </p>]"
p866
ssS'21.4'
p867
(dp868
g3
S'Kohli'
p869
sg5
g14
sg7
S' Anderson'
p870
sg9
S'\nand Kohli somehow is able to work this fuller one away through the gap  and it was all to do with his wrists as this is heaved over deep midwicket  beating the fielder coming in from square leg  </p>]'
p871
ssS'8.3'
p872
(dp873
g3
S'Sharma'
p874
sg5
S'6 run'
p875
sg7
S' Mills'
p876
sg9
S'\nMills delivers another length ball in the same channel  except this time Rohit just bludgeons him through the line over long-off for a six. Excellent shot that from Rohit. Just seemed to come out of nowhere  </p>]'
p877
ssS'8.2'
p878
(dp879
g3
S'Sharma'
p880
sg5
S'no run'
p881
sg7
S' Mills'
p882
sg9
S'\nMills gets this in the proper channel outside off as this one shapes away from Rohit as he looks to play this off the back foot through the covers  </p>]'
p883
ssS'8.5'
p884
(dp885
g3
S'Sharma'
p886
sg5
S'1 run'
p887
sg7
S' Mills'
p888
sg9
S'\nshort of a length outside off which is run down to third man for a single  </p>]'
p889
ssS'8.4'
p890
(dp891
g3
S'Sharma'
p892
sg5
S'no run'
p893
sg7
S' Mills'
p894
sg9
S'\nshould have done better with this delivery slanting down the pads as Rohit  looking to glance this  ends up getting a leading edge which goes to the off side  </p>]'
p895
ssS'21.3'
p896
(dp897
g3
S'Kohli'
p898
sg5
S'no run'
p899
sg7
S' Anderson'
p900
sg9
S'\ntries in vain to whip away this slower one from Anderson through the leg side  </p>]'
p901
ssS'8.6'
p902
(dp903
g3
S'Kohli'
p904
sg5
S'no run'
p905
sg7
S' Mills'
p906
sg9
S'\nKohli defends this back of a length delivery outside off with soft hands to end the over  </p>]'
p907
ssS'19.3'
p908
(dp909
g3
S'Kohli'
p910
sg5
S'1 run'
p911
sg7
S' Anderson'
p912
sg9
S'\nwaits on it before deciding to open the face to let this one outside off to short third man  </p>]'
p913
ssS'30.3'
p914
(dp915
g3
S'Raina'
p916
sg5
S'1 run'
p917
sg7
S' Anderson'
p918
sg9
S'\ntries to work this length ball away to the leg side  but instead succeeds in getting a leading edge which ballons over to the off side  but away from any close-in fielders  </p>]'
p919
ssS'9.4'
p920
(dp921
g3
S'Sharma'
p922
sg5
S'no run'
p923
sg7
S' Southee'
p924
sg9
S'\ndefended off the back foot towards the covers with minimal footwork  </p>]'
p925
ssS'9.5'
p926
(dp927
g3
S'Sharma'
p928
sg5
g390
sg7
S' Southee'
p929
sg9
S'\nback of a length outside off which Rohit is enticed to have a flash at as the ball catches a faint outside edge to Ronchi  who takes a simple catch. Southee knows it straight away as he appeals  with Rod Tucker showing the dreaded finger. Another wasted start from Rohit as India in a spot of bother at 37 for 2  </p>]'
p930
ssS'9.6'
p931
(dp932
g3
S'Rahane'
p933
sg5
S'1 leg bye'
p934
sg7
S' Southee'
p935
sg9
S'\nhelps this shortish length delivery on the pads behind square  but is signalled leg-bye by the umpire  </p>]'
p936
ssS'9.1'
p937
(dp938
g3
S'Sharma'
p939
sg5
S'no run'
p940
sg7
S' Southee'
p941
sg9
S'\nsteps out to meet this fuller one from Southee  </p>]'
p942
ssS'9.2'
p943
(dp944
g3
S'Sharma'
p945
sg5
g14
sg7
S' Southee'
p946
sg9
S'\ntests him with a short one as Rohit is quickly onto the back foot before pulling this just behind square to the fine leg boundary  with no fielders in the frame to stop this one  </p>]'
p947
ssS'9.3'
p948
(dp949
g3
S'Sharma'
p950
sg5
S'no run'
p951
sg7
S' Southee'
p952
sg9
S'\nfuller one which is defended outside off by Rohit  </p>]'
p953
ssS'23.4'
p954
(dp955
g3
S'Rahane'
p956
sg5
g390
sg7
S' McClenaghan'
p957
sg9
S'\nand McClenaghan does it again as he bowls a shorter one which has Rahane going after it with a pull  but it looks as he gets through his shot a bit too early as he gets a faint outside edge which carries comfortably to Ronchi. Big wicket for New Zealand as these two threatened to take the match from them  </p>]'
p958
ssS'30.1'
p959
(dp960
g3
S'Dhoni'
p961
sg5
S'1 run'
p962
sg7
S' Anderson'
p963
sg9
S'\nDhoni able to maneuver this shorter one from Anderson to deep fine leg  </p>]'
p964
ssS'30.6'
p965
(dp966
g3
S'Dhoni'
p967
sg5
S'1 run'
p968
sg7
S' Anderson'
p969
sg9
S'\nbangs it in again as Dhoni is able to help this to the leg side with a pull  </p>]'
p970
ssS'28.1'
p971
(dp972
g3
S'Kohli'
p973
sg5
g875
sg7
S' Anderson'
p974
sg9
S'\nand Kohli reminds Anderson just who is in charge with a wristy hit which travels well over the deep midwicket rope for six. This is truly a unique shot to Kohli  </p>]'
p975
ssS'28.2'
p976
(dp977
g3
S'Kohli'
p978
sg5
S'no run'
p979
sg7
S' Anderson'
p980
sg9
S'\nand this one is played straight to short cover by the batsman  </p>]'
p981
ssS'28.3'
p982
(dp983
g3
S'Kohli'
p984
sg5
S'2 runs'
p985
sg7
S' Anderson'
p986
sg9
S'\nwidth on offer outside off as Kohli drives this one square off the wicket to sweeper cover  </p>]'
p987
ssS'28.4'
p988
(dp989
g3
S'Kohli'
p990
sg5
S'no run'
p991
sg7
S' Anderson'
p992
sg9
S"\nthis time looks to tee off straight down the ground  but doesn't quite get enough meat on it  </p>]"
p993
ssS'28.5'
p994
(dp995
g3
S'Kohli'
p996
sg5
S'no run'
p997
sg7
S' Anderson'
p998
sg9
S'\nfull and well wide outside off as Kohli  thinking this might be called a wide  is left smiling as he realises the umpire is not quite seeing it the same way  </p>]'
p999
ssS'7.3'
p1000
(dp1001
g3
S'Dhawan'
p1002
sg5
S'no run'
p1003
sg7
S' Southee'
p1004
sg9
S'\nfuller one outside off which is hit to the leg side by Dhawan  </p>]'
p1005
ssS'15.5'
p1006
(dp1007
g3
S'Kohli'
p1008
sg5
S'1 run'
p1009
sg7
S' Southee'
p1010
sg9
S'\nshort and heading down the leg side as Kohli pulls this comfortably to deep fine leg  who is able to get behind it  </p>]'
p1011
ssS'19.2'
p1012
(dp1013
g3
S'Rahane'
p1014
sg5
S'1 run'
p1015
sg7
S' Anderson'
p1016
sg9
S'\npunched towards the covers by Rahane as these two look increasingly more at ease at the wicket  </p>]'
p1017
ssS'38.2'
p1018
(dp1019
g3
S'Dhoni'
p1020
sg5
S'no run'
p1021
sg7
S' Southee'
p1022
sg9
S'\nDhoni goes for the big swing and a miss off this length ball outside off  </p>]'
p1023
ssS'36.3'
p1024
(dp1025
g3
S'Dhoni'
p1026
sg5
S'1 run'
p1027
sg7
S' Mills'
p1028
sg9
S'\nforced away by Dhoni on the leg side for a single  </p>]'
p1029
ssS'31.6'
p1030
(dp1031
g3
S'Raina'
p1032
sg5
S'1 run'
p1033
sg7
S' Southee'
p1034
sg9
S'\ngoes short once more as Raina hits this one into the ground in front of square before setting off for a tight single  just making his ground before the throw is fired in at his end  </p>]'
p1035
ssS'38.4'
p1036
(dp1037
g3
S'Jadeja'
p1038
sg5
S'1 run'
p1039
sg7
S' Southee'
p1040
sg9
S'\nyorker on middle which is directed away to long-off by Jadeja  </p>]'
p1041
ssS'31.4'
p1042
(dp1043
g3
S'Raina'
p1044
sg5
S'1 run'
p1045
sg7
S' Southee'
p1046
sg9
S'\nfull on the leg stump as Raina is able to squeeze this away on the off side for a quick single  </p>]'
p1047
ssS'31.5'
p1048
(dp1049
g3
S'Dhoni'
p1050
sg5
S'1 run'
p1051
sg7
S' Southee'
p1052
sg9
S'\npulled away fiercely by Dhoni to the man at deep midwicket  </p>]'
p1053
ssS'31.2'
p1054
(dp1055
g3
S'Raina'
p1056
sg5
g14
sg7
S' Southee'
p1057
sg9
S'\nterrible short delivery on the leg side which Raina is able to get a hold off and clobber through fine leg for a boundary  with the ball bouncing just before the rope  </p>]'
p1058
ssS'31.3'
p1059
(dp1060
g3
S'Raina'
p1061
sg5
S'no run'
p1062
sg7
S' Southee'
p1063
sg9
S'\nspears in a yorker outside off as Raina gives himself too much room to try and squirt this away through the off side  </p>]'
p1064
ssS'31.1'
p1065
(dp1066
g3
S'Dhoni'
p1067
sg5
S'1 run'
p1068
sg7
S' Southee'
p1069
sg9
S'\ndabbed away off the back foot through point for a single  </p>]'
p1070
ssS'18.1'
p1071
(dp1072
g3
S'Rahane'
p1073
sg5
g14
sg7
S' NL McCullum'
p1074
sg9
S'\nRahane chooses to go up and over the covers with a wonderful strike of the ball  </p>]'
p1075
ssS'18.3'
p1076
(dp1077
g3
S'Rahane'
p1078
sg5
S'1 run'
p1079
sg7
S' NL McCullum'
p1080
sg9
S'\non the back foot as this is worked down to long-on for a single  </p>]'
p1081
ssS'18.2'
p1082
(dp1083
g3
S'Rahane'
p1084
sg5
S'no run'
p1085
sg7
S' NL McCullum'
p1086
sg9
S'\npresses forward to defend this latest offering from Nathan  </p>]'
p1087
ssS'18.5'
p1088
(dp1089
g3
S'Rahane'
p1090
sg5
S'no run'
p1091
sg7
S' NL McCullum'
p1092
sg9
S"\nworked off the pads to the leg side  but can't pinch a single  </p>]"
p1093
ssS'18.4'
p1094
(dp1095
g3
S'Kohli'
p1096
sg5
S'1 run'
p1097
sg7
S' NL McCullum'
p1098
sg9
S'\nKohli advances down the track this time before clipping him behind square for a single son  </p>]'
p1099
ssS'18.6'
p1100
(dp1101
g3
S'Rahane'
p1102
sg5
S'no run'
p1103
sg7
S' NL McCullum'
p1104
sg9
S"\nsame result as before as Nathan's over finally comes to an end  </p>]"
p1105
ssS'1.4'
p1106
(dp1107
g3
S'Dhawan'
p1108
sg5
S'no run'
p1109
sg7
S' McClenaghan'
p1110
sg9
S'\nfuller one in the same channel which is this time driven down to long-off  </p>]'
p1111
ssS'1.5'
p1112
(dp1113
g3
S'Dhawan'
p1114
sg5
S'no run'
p1115
sg7
S' McClenaghan'
p1116
sg9
S'\ncuts in from a length on middle as this is turned away to the leg side  </p>]'
p1117
ssS'1.6'
p1118
(dp1119
g3
S'Dhawan'
p1120
sg5
S'no run'
p1121
sg7
S' McClenaghan'
p1122
sg9
S'\nshort of a length which rises on Dhawan as he plays this one cautiously off the back foot  playing this one down into the ground  </p>]'
p1123
ssS'1.1'
p1124
(dp1125
g3
S'Dhawan'
p1126
sg5
S'no run'
p1127
sg7
S' McClenaghan'
p1128
sg9
S'\nbegins with a length ball on middle and off which is defended back to Mitchell  </p>]'
p1129
ssS'1.2'
p1130
(dp1131
g3
S'Dhawan'
p1132
sg5
S'no run'
p1133
sg7
S' McClenaghan'
p1134
sg9
S'\nwide ball outside off which strays the line as this is collected by the keeper. Could have been a wide that one  </p>]'
p1135
ssS'1.3'
p1136
(dp1137
g3
S'Dhawan'
p1138
sg5
S'no run'
p1139
sg7
S' McClenaghan'
p1140
sg9
S'\ngets some away movement from Dhawan as he looks to loft this over extra-cover  </p>]'
p1141
ssS'0.1'
p1142
(dp1143
g3
S'Dhawan'
p1144
sg5
S'no run'
p1145
sg7
S' Mills'
p1146
sg9
S'\nstarts off with a back of a length ball which is defended by Dhawan off the back foot  </p>]'
p1147
ssS'30.2'
p1148
(dp1149
g3
S'Raina'
p1150
sg5
g14
sg7
S' Anderson'
p1151
sg9
S'\nbacks away to find the gap through backward point for this to run all the way to third man for a boundary  </p>]'
p1152
ssS'0.3'
p1153
(dp1154
g3
S'Sharma'
p1155
sg5
S'no run'
p1156
sg7
S' Mills'
p1157
sg9
S'\nfull and on middle as Rohit defends this one back towards the bowler  </p>]'
p1158
ssS'0.2'
p1159
(dp1160
g3
S'Dhawan'
p1161
sg5
S'1 run'
p1162
sg7
S' Mills'
p1163
sg9
S'\npitches this up on middle and off as Dhawan is off the mark with a drive to mid-off  </p>]'
p1164
ssS'0.5'
p1165
(dp1166
g3
S'Sharma'
p1167
sg5
S'no run'
p1168
sg7
S' Mills'
p1169
sg9
S'\nstrides out to meet this fuller one outside off  </p>]'
p1170
ssS'0.4'
p1171
(dp1172
g3
S'Sharma'
p1173
sg5
g14
sg7
S' Mills'
p1174
sg9
S'\ndriven elegantly by Rohit to the extra-cover boundary as this one just raced off the bat. Such a delightful stroke that from Rohit  </p>]'
p1175
ssS'30.5'
p1176
(dp1177
g3
S'Dhoni'
p1178
sg5
g14
sg7
S' Anderson'
p1179
sg9
S'\nDhoni is starting to tee off now as he shuffles off side before pulling this powerfully through fine leg  beating the fielder who was just a few metres away to the rope  </p>]'
p1180
ssS'0.6'
p1181
(dp1182
g3
S'Sharma'
p1183
sg5
S'no run'
p1184
sg7
S' Mills'
p1185
sg9
S'\npunches this back of a length offering straight to short cover  </p>]'
p1186
ssS'38.3'
p1187
(dp1188
g3
S'Dhoni'
p1189
sg5
S'1 run'
p1190
sg7
S' Southee'
p1191
sg9
S'\ninto position quickly to pull away this short one to the man at deep square leg  </p>]'
p1192
ssS'36.5'
p1193
(dp1194
g3
S'Jadeja'
p1195
sg5
S'1 run'
p1196
sg7
S' Mills'
p1197
sg9
S'\nslower ball on the same line which is run down to short third man for a quick single  </p>]'
p1198
ssS'38.1'
p1199
(dp1200
g3
S'Jadeja'
p1201
sg5
S'1 run'
p1202
sg7
S' Southee'
p1203
sg9
S'\nlow full toss swinging into the pads as Jadeja flicks this away behind square for a single  </p>]'
p1204
ssS'38.6'
p1205
(dp1206
g3
S'Dhoni'
p1207
sg5
S'1 run'
p1208
sg7
S' Southee'
p1209
sg9
S'\nslaps this one away off the back foot down to deep midwicket for a single  </p>]'
p1210
ssS'38.5'
p1211
(dp1212
g3
S'Dhoni'
p1213
sg5
g875
sg7
S' Southee'
p1214
sg9
S'\nand Dhoni plays the most elegant of lofted shots  mistiming this its execution  but the shot is able to carry just far enough for it to go over the extra-cover boundary for six. Also brings up his <b>52nd ODI fifty</b> </p>]'
p1215
ssS'36.4'
p1216
(dp1217
g3
S'Jadeja'
p1218
sg5
g875
sg7
S' Mills'
p1219
sg9
S'\nand Jadeja has announced himself to Hamilton with a shuffle down the tracks before middling this one over long-on with such violence. Where did that come from?  </p>]'
p1220
ssS'13.6'
p1221
(dp1222
g3
S'Kohli'
p1223
sg5
S'1 run'
p1224
sg7
S' Southee'
p1225
sg9
S'\nsensibly dabs this next one from Southee to third man for one  </p>]'
p1226
ssS'13.4'
p1227
(dp1228
g3
S'Kohli'
p1229
sg5
S'no run'
p1230
sg7
S' Southee'
p1231
sg9
S'\ngets an inside-edge on this length ball on and around off as Kohli hits this onto his pad before the ball pops forward towards Southee  who sees it at the last moment and tries a desperate dive to get at it  but the ball lands just before  </p>]'
p1232
ssS'13.5'
p1233
(dp1234
g3
S'Kohli'
p1235
sg5
g875
sg7
S' Southee'
p1236
sg9
S'\njust gorgeous  simply gorgeous from Kohli as he slams this Southee length ball over extra-cover for a six  </p>]'
p1237
ssS'13.2'
p1238
(dp1239
g3
S'Rahane'
p1240
sg5
S'1 run'
p1241
sg7
S' Southee'
p1242
sg9
S'\ngets a deflection off the bat towards the leg side as he looked to defend it to the off side  </p>]'
p1243
ssS'13.3'
p1244
(dp1245
g3
S'Kohli'
p1246
sg5
S'no run'
p1247
sg7
S' Southee'
p1248
sg9
S'\npitched up once more as Kohli is unlucky to find the man at mid-on  </p>]'
p1249
ssS'13.1'
p1250
(dp1251
g3
S'Rahane'
p1252
sg5
S'no run'
p1253
sg7
S' Southee'
p1254
sg9
S'\nfuller one just outside off which is slapped away to mid-on  </p>]'
p1255
ssS'4.5'
p1256
(dp1257
g3
S'Dhawan'
p1258
sg5
S'1 run'
p1259
sg7
S' Mills'
p1260
sg9
S'\nclips this fuller one off the pads behind square to deep fine leg  </p>]'
p1261
ssS'4.4'
p1262
(dp1263
g3
S'Dhawan'
p1264
sg5
S'no run'
p1265
sg7
S' Mills'
p1266
sg9
S'\nthis one kinds of sit up on Dhawan as he fends this away to the off side  </p>]'
p1267
ssS'5.2'
p1268
(dp1269
g3
S'Dhawan'
p1270
sg5
S'no run'
p1271
sg7
S' McClenaghan'
p1272
sg9
S'\nshortish length which is worked away to point  </p>]'
p1273
ssS'4.6'
p1274
(dp1275
g3
S'Sharma'
p1276
sg5
S'1 run'
p1277
sg7
S' Mills'
p1278
sg9
S'\ndabs this winder one outside off the fielder at third man  </p>]'
p1279
ssS'4.1'
p1280
(dp1281
g3
S'Dhawan'
p1282
sg5
S'1 run'
p1283
sg7
S' Mills'
p1284
sg9
S'\npushes this one across Dhawan as he gets an outside edge  playing this with soft hands  to let this drop short of the slip fielder  </p>]'
p1285
ssS'5.5'
p1286
(dp1287
g3
S'Dhawan'
p1288
sg5
S'no run'
p1289
sg7
S' McClenaghan'
p1290
sg9
S'\ndefends this full one straight to the covers  </p>]'
p1291
ssS'4.3'
p1292
(dp1293
g3
S'Sharma'
p1294
sg5
S'1 run'
p1295
sg7
S' Mills'
p1296
sg9
S'\neased away to deep midwicket by Rohit for a couple  </p>]'
p1297
ssS'4.2'
p1298
(dp1299
g3
S'Sharma'
p1300
sg5
S'no run'
p1301
sg7
S' Mills'
p1302
sg9
S'\n<b>dropped</b> and Williamson has caused a massive blunder in the field as Rohit just smashes this length offering straight to him at backward point  but Williamson is unable to hold the chance  </p>]'
p1303
ssS'11.4'
p1304
(dp1305
g3
S'Kohli'
p1306
sg5
S'no run'
p1307
sg7
S' Southee'
p1308
sg9
S'\nshort of a length  on off  defended  </p>]'
p1309
ssS'11.5'
p1310
(dp1311
g3
S'Kohli'
p1312
sg5
S'1 run'
p1313
sg7
S' Southee'
p1314
sg9
S'\nsting-less short ball  pulled away to deep square leg  </p>]'
p1315
ssS'11.6'
p1316
(dp1317
g3
S'Rahane'
p1318
sg5
S'no run'
p1319
sg7
S' Southee'
p1320
sg9
S'\ngoes really wide of the crease  makes Rahane play the angle  and then gets it to swing away beautifully to beat the edge. Classical outswing bowling  </p>]'
p1321
ssS'11.1'
p1322
(dp1323
g3
S'Kohli'
p1324
sg5
S'no run'
p1325
sg7
S' Southee'
p1326
sg9
S'\ndecent outswinger  on off  shaping away late  pushed with an open face  </p>]'
p1327
ssS'11.2'
p1328
(dp1329
g3
S'Kohli'
p1330
sg5
S'no run'
p1331
sg7
S' Southee'
p1332
sg9
S'\ngoes wide of the crease  stays a little short of a length  Kohli defends outside off  </p>]'
p1333
ssS'11.3'
p1334
(dp1335
g3
S'Kohli'
p1336
sg5
g14
sg7
S' Southee'
p1337
sg9
S"\nKohli is taking the risks. Dances down the wicket  smashes this outswinger towards cover. Ryder has a <b>half chance</b> at short cover  but this one is absolutely flying at it. In fact he does well to get a touch to it  which doesn't keep this from crashing into the boundary boards  </p>]"
p1338
ssS'17.2'
p1339
(dp1340
g3
S'Kohli'
p1341
sg5
S'1 run'
p1342
sg7
S' Anderson'
p1343
sg9
S'\ndriven down the ground to long-off for one  </p>]'
p1344
ssS'17.3'
p1345
(dp1346
g3
S'Rahane'
p1347
sg5
S'no run'
p1348
sg7
S' Anderson'
p1349
sg9
S'\nlength on and around off which is negotiated by Rahane  </p>]'
p1350
ssS'17.1'
p1351
(dp1352
g3
S'Kohli'
p1353
sg5
S'no run'
p1354
sg7
S' Anderson'
p1355
sg9
S'\nbegins with a loosener outside off which is driven straight to silly mid-off  </p>]'
p1356
ssS'17.6'
p1357
(dp1358
g3
S'Rahane'
p1359
sg5
S'1 run'
p1360
sg7
S' Anderson'
p1361
sg9
S'\ngets a single down to deep fine leg to signal the fifty-run partnership between these two  </p>]'
p1362
ssS'18.40'
p1363
(dp1364
g3
S'Kohli'
p1365
sg5
g219
sg7
S' NL McCullum'
p1366
sg9
S'\nNathan has his lines horribly wrong as this one is sent further down the leg side  </p>]'
p1367
ssS'17.4'
p1368
(dp1369
g3
S'Rahane'
p1370
sg5
S'2 runs'
p1371
sg7
S' Anderson'
p1372
sg9
S'\noverpitched and on the pads as this is helped down to deep midwicket  who is a bit casual getting to it as the pair are able to sneak in a second as well  </p>]'
p1373
ssS'17.5'
p1374
(dp1375
g3
S'Rahane'
p1376
sg5
S'no run'
p1377
sg7
S' Anderson'
p1378
sg9
S'\nspeared in on middle as Rahane drives this straight back  with Anderson sticking out a hand to stop it in its tracks  </p>]'
p1379
ssS'36.2'
p1380
(dp1381
g3
S'Dhoni'
p1382
sg5
S'no run'
p1383
sg7
S' Mills'
p1384
sg9
S'\ntries to work this one away from Mills to the off side  </p>]'
p1385
ssS'5.1'
p1386
(dp1387
g3
S'Sharma'
p1388
sg5
S'1 run'
p1389
sg7
S' McClenaghan'
p1390
sg9
S'\ndriven beautifully down the ground by Rohit  and is intercepted by some good fieldinf  </p>]'
p1391
ssS'30.20'
p1392
(dp1393
g3
S'Raina'
p1394
sg5
g219
sg7
S' Anderson'
p1395
sg9
S'\nslower ball which he gets the line completely wrong on as this heads down the leg side for a wide  </p>]'
p1396
ssS'5.3'
p1397
(dp1398
g3
S'Dhawan'
p1399
sg5
S'no run'
p1400
sg7
S' McClenaghan'
p1401
sg9
S'\ndriven firmly by Dhawan to the mid-off fielder  </p>]'
p1402
ssS'41.1'
p1403
(dp1404
g3
S'Kumar'
p1405
sg5
g390
sg7
S' Anderson'
p1406
sg9
S'\nand Kumar  in automatic six-hitting mode  ends up top-edging this length ball straight over to deep point  who takes a good catch to remove Bhuvi  </p>]'
p1407
ssS'29.5'
p1408
(dp1409
g3
S'Raina'
p1410
sg5
S'no run'
p1411
sg7
S' Southee'
p1412
sg9
S'\nRaina just prods forward to defend this one to the off side  </p>]'
p1413
ssS'5.4'
p1414
(dp1415
g3
S'Dhawan'
p1416
sg5
g14
sg7
S' McClenaghan'
p1417
sg9
S'\nwide outside off as Dhawan gets low to square cut this through the gap for a boundary. This was hit intentionally in the air  but away from any fielders  </p>]'
p1418
ssS'29.6'
p1419
(dp1420
g3
S'Raina'
p1421
sg5
S'2 runs'
p1422
sg7
S' Southee'
p1423
sg9
S'\nRaina has decided he has had the measure of the pitch as he goes for that trademark heave over cow corner  but gets a bottom edge which flies high towards deep midwicket  but is lucky to fall in no-mans land  </p>]'
p1424
ssS'29.1'
p1425
(dp1426
g3
S'Kohli'
p1427
sg5
S'1 run'
p1428
sg7
S' Southee'
p1429
sg9
S'\nangles this one away on middle to the leg side for a single  </p>]'
p1430
ssS'29.3'
p1431
(dp1432
g3
S'Kohli'
p1433
sg5
g14
sg7
S' Southee'
p1434
sg9
S'\nKohli saw this one early as this slow  </p>]'
p1435
ssS'29.2'
p1436
(dp1437
g3
S'Dhoni'
p1438
sg5
S'1 leg bye'
p1439
sg7
S' Southee'
p1440
sg9
S'\nand tries out a short one which Dhoni is quite early on as this one crashes into his body  before he sets off for the available single  </p>]'
p1441
ssS'15.1'
p1442
(dp1443
g3
S'Kohli'
p1444
sg5
S'1 run'
p1445
sg7
S' Southee'
p1446
sg9
S'\nwhips this back of a length delivery off the pads for a single  </p>]'
p1447
ssS'15.2'
p1448
(dp1449
g3
S'Rahane'
p1450
sg5
S'2 runs'
p1451
sg7
S' Southee'
p1452
sg9
S"\nRahane has had enough as he steps down to lift Southee over extra-cover  but doesn't quite get the timing right on it as this one spoons high in the air  with Guptill running backwards to try in vain to get in a catch. Good effort from Gups  and Rahane survives to fight another day  </p>]"
p1453
ssS'15.3'
p1454
(dp1455
g3
S'Rahane'
p1456
sg5
g14
sg7
S' Southee'
p1457
sg9
S'\nRahane not even fazed by what just transpired as he lofts Southee over extra-cover for a wonderfully timed boundary  </p>]'
p1458
ssS'15.4'
p1459
(dp1460
g3
S'Rahane'
p1461
sg5
S'1 run'
p1462
sg7
S' Southee'
p1463
sg9
S'\ndefends this one on the front foot through the leg side and then sets off for a quick single  which he makes in time  </p>]'
p1464
ssS'5.6'
p1465
(dp1466
g3
S'Dhawan'
p1467
sg5
g14
sg7
S' McClenaghan'
p1468
sg9
S'\nable to squeeze this one through the gap at point to find a boundary. Good comeback from India after the first few miserly overs  </p>]'
p1469
ssS'15.6'
p1470
(dp1471
g3
S'Rahane'
p1472
sg5
S'1 run'
p1473
sg7
S' Southee'
p1474
sg9
S'\nangles this length ball away to midwicket for a single  </p>]'
p1475
ss.